(dp1
S'files'
p2
(dp3
S'django_contrib_auth_views'
p4
(dp5
S'index'
p6
(dp7
S'html_filename'
p8
S'django_contrib_auth_views.html'
p9
sS'name'
p10
S'django.contrib.auth.views'
p11
sS'nums'
p12
ccopy_reg
_reconstructor
p13
(ccoverage.results
Numbers
p14
c__builtin__
object
p15
NtRp16
(dp17
S'n_files'
p18
I1
sS'n_branches'
p19
I0
sS'n_statements'
p20
I141
sS'n_excluded'
p21
I0
sS'n_partial_branches'
p22
I0
sS'n_missing'
p23
I102
sS'n_missing_branches'
p24
I0
sbssS'hash'
p25
S'\xab\x9f\xe6\xef\x9d\x9f\xaf<\x82-\xeb\xdd0!\x137'
p26
ssS'_Users_rick_envs_django-tags-input_lib_python2_7_site-packages_django_contrib_sites_admin'
p27
(dp28
S'index'
p29
(dp30
S'html_filename'
p31
S'_Users_rick_envs_django-tags-input_lib_python2_7_site-packages_django_contrib_sites_admin.html'
p32
sS'name'
p33
S'/Users/rick/envs/django-tags-input/lib/python2.7/site-packages/django/contrib/sites/admin'
p34
sS'nums'
p35
g13
(g14
g15
NtRp36
(dp37
g18
I1
sg19
I0
sg20
I6
sg21
I0
sg22
I0
sg23
I0
sg24
I0
sbssS'hash'
p38
S'\x88\xea\x7fX\n\x9c2tI\xac\xb4\xb2\xbd\x0e+\x10'
p39
ssS'_Users_rick_envs_django-tags-input_lib_python2_7_site-packages_django_db_models_query'
p40
(dp41
g29
(dp42
g31
S'_Users_rick_envs_django-tags-input_lib_python2_7_site-packages_django_db_models_query.html'
p43
sg33
S'/Users/rick/envs/django-tags-input/lib/python2.7/site-packages/django/db/models/query'
p44
sg35
g13
(g14
g15
NtRp45
(dp46
g18
I1
sg19
I0
sg20
I973
sg21
I0
sg22
I0
sg23
I722
sg24
I0
sbssg38
S"\x9bi\xbc\xc9'\x83\xdc|\xa7\xc2E\x8c\x1d5\x03d"
p47
ssS'django_contrib_auth_middleware'
p48
(dp49
g6
(dp50
g8
S'django_contrib_auth_middleware.html'
p51
sg10
S'django.contrib.auth.middleware'
p52
sg12
g13
(g14
g15
NtRp53
(dp54
g18
I1
sg19
I0
sg20
I44
sg21
I0
sg22
I0
sg23
I27
sg24
I0
sbssg25
S'\xfb\xec\x83\xc7\r\x84\x1c<z!\x10\xcd\x0b\x11EC'
p55
ssS'django_utils_xmlutils'
p56
(dp57
g6
(dp58
g8
S'django_utils_xmlutils.html'
p59
sg10
S'django.utils.xmlutils'
p60
sg12
g13
(g14
g15
NtRp61
(dp62
g18
I1
sg19
I0
sg20
I8
sg21
I0
sg22
I0
sg23
I5
sg24
I0
sbssg25
S'\xf1J\xb5(\x1cm\xf1\x8bQ\xab\x89\xc1\xce\x91R\x8f'
p63
ssS'_Users_rick_envs_django-tags-input_lib_python2_7_site-packages_django_template_smartif'
p64
(dp65
g29
(dp66
g31
S'_Users_rick_envs_django-tags-input_lib_python2_7_site-packages_django_template_smartif.html'
p67
sg33
S'/Users/rick/envs/django-tags-input/lib/python2.7/site-packages/django/template/smartif'
p68
sg35
g13
(g14
g15
NtRp69
(dp70
g18
I1
sg19
I0
sg20
I104
sg21
I0
sg22
I0
sg23
I60
sg24
I0
sbssg38
S'6\xabk\xabR\xd3fS\xa0\xa4}P\xa2M5\x91'
p71
ssS'_Users_rick_envs_django-tags-input_lib_python2_7_site-packages_django_contrib_admindocs_views'
p72
(dp73
g29
(dp74
g31
S'_Users_rick_envs_django-tags-input_lib_python2_7_site-packages_django_contrib_admindocs_views.html'
p75
sg33
S'/Users/rick/envs/django-tags-input/lib/python2.7/site-packages/django/contrib/admindocs/views'
p76
sg35
g13
(g14
g15
NtRp77
(dp78
g18
I1
sg19
I0
sg20
I216
sg21
I0
sg22
I0
sg23
I176
sg24
I0
sbssg38
S'\xb7\xe4r\xb0\x16}\x0c\x16\xe4\x00\x90\x89\xffj\xd9\xb5'
p79
ssS'_Users_rick_envs_django-tags-input_lib_python2_7_site-packages_django_contrib_messages_storage_session'
p80
(dp81
g29
(dp82
g31
S'_Users_rick_envs_django-tags-input_lib_python2_7_site-packages_django_contrib_messages_storage_session.html'
p83
sg33
S'/Users/rick/envs/django-tags-input/lib/python2.7/site-packages/django/contrib/messages/storage/session'
p84
sg35
g13
(g14
g15
NtRp85
(dp86
g18
I1
sg19
I0
sg20
I13
sg21
I0
sg22
I0
sg23
I5
sg24
I0
sbssg38
S'\xbdy\xe8[\xc0\xe2\x199\x99\x06%\x8f\xff[t5'
p87
ssS'_Users_rick_envs_django-tags-input_lib_python2_7_site-packages_django_db_utils'
p88
(dp89
g29
(dp90
g31
S'_Users_rick_envs_django-tags-input_lib_python2_7_site-packages_django_db_utils.html'
p91
sg33
S'/Users/rick/envs/django-tags-input/lib/python2.7/site-packages/django/db/utils'
p92
sg35
g13
(g14
g15
NtRp93
(dp94
g18
I1
sg19
I0
sg20
I119
sg21
I0
sg22
I0
sg23
I74
sg24
I0
sbssg38
S'w\xcc\x01"\x17\xa9\xd9\x89\xff\xa3g\xf7\x80\x96\xb6\xcb'
p95
ssS'django_core_management_validation'
p96
(dp97
g6
(dp98
g8
S'django_core_management_validation.html'
p99
sg10
S'django.core.management.validation'
p100
sg12
g13
(g14
g15
NtRp101
(dp102
g18
I1
sg19
I0
sg20
I246
sg21
I0
sg22
I0
sg23
I109
sg24
I0
sbssg25
S'\xbdm\xc08\x90\x90\x0e\xdf\xe1M\xf5\x82\xdf^\x13\x01'
p103
ssS'django_contrib_admin_views'
p104
(dp105
g6
(dp106
g8
S'django_contrib_admin_views.html'
p107
sg10
S'django.contrib.admin.views'
p108
sg12
g13
(g14
g15
NtRp109
(dp110
g18
I1
sg19
I0
sg20
I0
sg21
I0
sg22
I0
sg23
I0
sg24
I0
sbssg25
S'\xb0\xc8pN\xaf>\xa0\xbaz\x144\xe0A9\xb8?'
p111
ssS'_Users_rick_envs_django-tags-input_lib_python2_7_site-packages_django_db_backends_sqlite3_creation'
p112
(dp113
g29
(dp114
g31
S'_Users_rick_envs_django-tags-input_lib_python2_7_site-packages_django_db_backends_sqlite3_creation.html'
p115
sg33
S'/Users/rick/envs/django-tags-input/lib/python2.7/site-packages/django/db/backends/sqlite3/creation'
p116
sg35
g13
(g14
g15
NtRp117
(dp118
g18
I1
sg19
I0
sg20
I44
sg21
I0
sg22
I0
sg23
I31
sg24
I0
sbssg38
S'!\xb0\xfe\x11\xb06\xa6\xc5\x18\xb6\x97-\xd3A\x19W'
p119
ssS'_Users_rick_envs_django-tags-input_lib_python2_7_site-packages_django_contrib_sessions_backends_base'
p120
(dp121
g29
(dp122
g31
S'_Users_rick_envs_django-tags-input_lib_python2_7_site-packages_django_contrib_sessions_backends_base.html'
p123
sg33
S'/Users/rick/envs/django-tags-input/lib/python2.7/site-packages/django/contrib/sessions/backends/base'
p124
sg35
g13
(g14
g15
NtRp125
(dp126
g18
I1
sg19
I0
sg20
I178
sg21
I0
sg22
I0
sg23
I66
sg24
I0
sbssg38
S'\x953\x1eI\t\xa9q\xb2=\xe4\xe2\xde\x8d\xc3\xbff'
p127
ssS'django_contrib_messages_models'
p128
(dp129
g6
(dp130
g8
S'django_contrib_messages_models.html'
p131
sg10
S'django.contrib.messages.models'
p132
sg12
g13
(g14
g15
NtRp133
(dp134
g18
I1
sg19
I0
sg20
I0
sg21
I0
sg22
I0
sg23
I0
sg24
I0
sbssg25
S'}\xf8)\x98N\x1e\xef\xd8Ky\x9f\x03d\x14L\xac'
p135
ssS'_Users_rick_envs_django-tags-input_lib_python2_7_site-packages_nose_plugins_cover'
p136
(dp137
g29
(dp138
g31
S'_Users_rick_envs_django-tags-input_lib_python2_7_site-packages_nose_plugins_cover.html'
p139
sg33
S'/Users/rick/envs/django-tags-input/lib/python2.7/site-packages/nose/plugins/cover'
p140
sg35
g13
(g14
g15
NtRp141
(dp142
g18
I1
sg19
I0
sg20
I138
sg21
I0
sg22
I0
sg23
I134
sg24
I0
sbssg38
S'Q\xa7\x85\xadP\xde\x81\xdf/\x13I#qC\x9c\x82'
p143
ssS'example_autocompletionexample_admin'
p144
(dp145
g6
(dp146
g8
S'example_autocompletionexample_admin.html'
p147
sg10
S'example.autocompletionexample.admin'
p148
sg12
g13
(g14
g15
NtRp149
(dp150
g18
I1
sg19
I0
sg20
I19
sg21
I0
sg22
I0
sg23
I0
sg24
I0
sbssg25
S'y\xac\xc0\x07\x1e\x12\x97\xea5\xf1\r\xc8\xc1v5\xc2'
p151
ssS'tags_input_exceptions'
p152
(dp153
g6
(dp154
g8
S'tags_input_exceptions.html'
p155
sg10
S'tags_input.exceptions'
p156
sg12
g13
(g14
g15
NtRp157
(dp158
g18
I1
sg19
I0
sg20
I6
sg21
I0
sg22
I0
sg23
I0
sg24
I0
sbssg25
S'\x0b\xf1\xb5\x0c5\xa9\x88\x80e$\xe4\x9e\x18\x14t\xfa'
p159
ssS'_Users_rick_envs_django-tags-input_lib_python2_7_site-packages_django_utils_regex_helper'
p160
(dp161
g29
(dp162
g31
S'_Users_rick_envs_django-tags-input_lib_python2_7_site-packages_django_utils_regex_helper.html'
p163
sg33
S'/Users/rick/envs/django-tags-input/lib/python2.7/site-packages/django/utils/regex_helper'
p164
sg35
g13
(g14
g15
NtRp165
(dp166
g18
I1
sg19
I0
sg20
I188
sg21
I0
sg22
I0
sg23
I98
sg24
I0
sbssg38
S'"f\xb8\x05G\xc0\xe3\xc0\xa1\x89\x98k\x9d\xa3\x1fi'
p167
ssS'_Users_rick_envs_django-tags-input_lib_python2_7_site-packages_django_core_serializers___init__'
p168
(dp169
g29
(dp170
g31
S'_Users_rick_envs_django-tags-input_lib_python2_7_site-packages_django_core_serializers___init__.html'
p171
sg33
S'/Users/rick/envs/django-tags-input/lib/python2.7/site-packages/django/core/serializers/__init__'
p172
sg35
g13
(g14
g15
NtRp173
(dp174
g18
I1
sg19
I0
sg20
I59
sg21
I0
sg22
I0
sg23
I47
sg24
I0
sbssg38
S'q\xfb\xb9N\xa2\xbe\x0c\xceB\xb7C|\x04\xc04!'
p175
ssS'django_views_decorators_debug'
p176
(dp177
g6
(dp178
g8
S'django_views_decorators_debug.html'
p179
sg10
S'django.views.decorators.debug'
p180
sg12
g13
(g14
g15
NtRp181
(dp182
g18
I1
sg19
I0
sg20
I19
sg21
I0
sg22
I0
sg23
I12
sg24
I0
sbssg25
S'\x8c\xd5\x86&\xdc\x98]\x15\xfe\xe61\xf6P\xc43Q'
p183
ssS'_Users_rick_envs_django-tags-input_lib_python2_7_site-packages_django_contrib_auth_admin'
p184
(dp185
g29
(dp186
g31
S'_Users_rick_envs_django-tags-input_lib_python2_7_site-packages_django_contrib_auth_admin.html'
p187
sg33
S'/Users/rick/envs/django-tags-input/lib/python2.7/site-packages/django/contrib/auth/admin'
p188
sg35
g13
(g14
g15
NtRp189
(dp190
g18
I1
sg19
I0
sg20
I92
sg21
I0
sg22
I0
sg23
I43
sg24
I0
sbssg38
S'\xe2\r\x92ff\x91\xd3\xe6qyV6\xbf\x92Z\x92'
p191
ssS'_Users_rick_envs_django-tags-input_lib_python2_7_site-packages_django_utils_six'
p192
(dp193
g29
(dp194
g31
S'_Users_rick_envs_django-tags-input_lib_python2_7_site-packages_django_utils_six.html'
p195
sg33
S'/Users/rick/envs/django-tags-input/lib/python2.7/site-packages/django/utils/six'
p196
sg35
g13
(g14
g15
NtRp197
(dp198
g18
I1
sg19
I0
sg20
I237
sg21
I0
sg22
I0
sg23
I233
sg24
I0
sbssg38
S'c\xd83\x82\x8eu\x8f*=\xdc\x18,V\xc7\xdc\xca'
p199
ssS'_Users_rick_envs_django-tags-input_lib_python2_7_site-packages_django_contrib_auth_decorators'
p200
(dp201
g29
(dp202
g31
S'_Users_rick_envs_django-tags-input_lib_python2_7_site-packages_django_contrib_auth_decorators.html'
p203
sg33
S'/Users/rick/envs/django-tags-input/lib/python2.7/site-packages/django/contrib/auth/decorators'
p204
sg35
g13
(g14
g15
NtRp205
(dp206
g18
I1
sg19
I0
sg20
I39
sg21
I0
sg22
I0
sg23
I18
sg24
I0
sbssg38
S"\x98\xff\xcf@p\xa2p\xbb\xeb\xf9X~S'\x80T"
p207
ssS'_Users_rick_envs_django-tags-input_lib_python2_7_site-packages_django_utils_formats'
p208
(dp209
g29
(dp210
g31
S'_Users_rick_envs_django-tags-input_lib_python2_7_site-packages_django_utils_formats.html'
p211
sg33
S'/Users/rick/envs/django-tags-input/lib/python2.7/site-packages/django/utils/formats'
p212
sg35
g13
(g14
g15
NtRp213
(dp214
g18
I1
sg19
I0
sg20
I115
sg21
I0
sg22
I0
sg23
I109
sg24
I0
sbssg38
S'?\xfeJ\x9a0\x8c\x06(@P\x8c\rZ-\xb1j'
p215
ssS'_Users_rick_envs_django-tags-input_lib_python2_7_site-packages_django_utils_termcolors'
p216
(dp217
g29
(dp218
g31
S'_Users_rick_envs_django-tags-input_lib_python2_7_site-packages_django_utils_termcolors.html'
p219
sg33
S'/Users/rick/envs/django-tags-input/lib/python2.7/site-packages/django/utils/termcolors'
p220
sg35
g13
(g14
g15
NtRp221
(dp222
g18
I1
sg19
I0
sg20
I57
sg21
I0
sg22
I0
sg23
I54
sg24
I0
sbssg38
S'V\xa7\xd5\x9c\x89\xa1\xc6\x0f\xee\xa6\xe1*d\xebX\x91'
p223
ssS'_Users_rick_envs_django-tags-input_lib_python2_7_site-packages_django_contrib_messages_storage_base'
p224
(dp225
g29
(dp226
g31
S'_Users_rick_envs_django-tags-input_lib_python2_7_site-packages_django_contrib_messages_storage_base.html'
p227
sg33
S'/Users/rick/envs/django-tags-input/lib/python2.7/site-packages/django/contrib/messages/storage/base'
p228
sg35
g13
(g14
g15
NtRp229
(dp230
g18
I1
sg19
I0
sg20
I83
sg21
I0
sg22
I0
sg23
I13
sg24
I0
sbssg38
S'n\xf9\xed_\x04\x93\x1cH\x1aO\t\x7f\xcas\xba\xcf'
p231
ssS'autocompletionexample_models'
p232
(dp233
g29
(dp234
g31
S'autocompletionexample_models.html'
p235
sg33
S'autocompletionexample/models'
p236
sg35
g13
(g14
g15
NtRp237
(dp238
g18
I1
sg19
I0
sg20
I25
sg21
I0
sg22
I0
sg23
I0
sg24
I0
sbssg38
S'Vg\xa4\xda\xe6U\x9651\xd0Sio\xf3p\x93'
p239
ssS'_Users_rick_envs_django-tags-input_lib_python2_7_site-packages_django_contrib_messages_utils'
p240
(dp241
g29
(dp242
g31
S'_Users_rick_envs_django-tags-input_lib_python2_7_site-packages_django_contrib_messages_utils.html'
p243
sg33
S'/Users/rick/envs/django-tags-input/lib/python2.7/site-packages/django/contrib/messages/utils'
p244
sg35
g13
(g14
g15
NtRp245
(dp246
g18
I1
sg19
I0
sg20
I6
sg21
I0
sg22
I0
sg23
I0
sg24
I0
sbssg38
S'\x8e\xc7\xac\x98\xd8\x97}YJ\xae\xe1\x07\xa0\x03\xca\xd0'
p247
ssS'django_contrib_messages_utils'
p248
(dp249
g6
(dp250
g8
S'django_contrib_messages_utils.html'
p251
sg10
S'django.contrib.messages.utils'
p252
sg12
g13
(g14
g15
NtRp253
(dp254
g18
I1
sg19
I0
sg20
I6
sg21
I0
sg22
I0
sg23
I0
sg24
I0
sbssg25
S'\x8e\xc7\xac\x98\xd8\x97}YJ\xae\xe1\x07\xa0\x03\xca\xd0'
p255
ssS'tests'
p256
(dp257
g29
(dp258
g31
S'tests.html'
p259
sg33
g256
sg35
g13
(g14
g15
NtRp260
(dp261
g18
I1
sg19
I0
sg20
I51
sg21
I0
sg22
I0
sg23
I0
sg24
I0
sbssg38
S'\x83"6\xf2c\xc6\xe4\x11nq\xbb\xc9C\x0ck\xe7'
p262
ssS'django_template_loaders_app_directories'
p263
(dp264
g6
(dp265
g8
S'django_template_loaders_app_directories.html'
p266
sg10
S'django.template.loaders.app_directories'
p267
sg12
g13
(g14
g15
NtRp268
(dp269
g18
I1
sg19
I0
sg20
I43
sg21
I0
sg22
I0
sg23
I4
sg24
I0
sbssg25
S'\x91\\\xdaG\xba\r\xa2\x06t\x87\xf8\xbe\r\xd7X\xcd'
p270
ssS'_Users_rick_envs_django-tags-input_lib_python2_7_site-packages_django_utils_safestring'
p271
(dp272
g29
(dp273
g31
S'_Users_rick_envs_django-tags-input_lib_python2_7_site-packages_django_utils_safestring.html'
p274
sg33
S'/Users/rick/envs/django-tags-input/lib/python2.7/site-packages/django/utils/safestring'
p275
sg35
g13
(g14
g15
NtRp276
(dp277
g18
I1
sg19
I0
sg20
I62
sg21
I0
sg22
I0
sg23
I46
sg24
I0
sbssg38
S'\x0e\r\xe9\xfde\xddQ\xcc\xc6\xf5j7\x9a\xc2\xf4\r'
p278
ssS'_Users_rick_envs_django-tags-input_lib_python2_7_site-packages_django_core_serializers_python'
p279
(dp280
g29
(dp281
g31
S'_Users_rick_envs_django-tags-input_lib_python2_7_site-packages_django_core_serializers_python.html'
p282
sg33
S'/Users/rick/envs/django-tags-input/lib/python2.7/site-packages/django/core/serializers/python'
p283
sg35
g13
(g14
g15
NtRp284
(dp285
g18
I1
sg19
I0
sg20
I86
sg21
I0
sg22
I0
sg23
I67
sg24
I0
sbssg38
S"\xcf\xb3s\n\xa1\x83\xbc\xc1\xe4W\xfe2'\xb9b\xce"
p286
ssS'_Users_rick_envs_django-tags-input_lib_python2_7_site-packages_nose_plugins_capture'
p287
(dp288
g29
(dp289
g31
S'_Users_rick_envs_django-tags-input_lib_python2_7_site-packages_nose_plugins_capture.html'
p290
sg33
S'/Users/rick/envs/django-tags-input/lib/python2.7/site-packages/nose/plugins/capture'
p291
sg35
g13
(g14
g15
NtRp292
(dp293
g18
I1
sg19
I0
sg20
I66
sg21
I0
sg22
I0
sg23
I58
sg24
I0
sbssg38
S'7\xe7\x8f\xd3\xd8Pv\x93\xc8=\xcc)\xa9RO\xba'
p294
ssS'tags_input_views'
p295
(dp296
g6
(dp297
g8
S'tags_input_views.html'
p298
sg10
S'tags_input.views'
p299
sg12
g13
(g14
g15
NtRp300
(dp301
g18
I1
sg19
I0
sg20
I24
sg21
I0
sg22
I0
sg23
I0
sg24
I0
sbssg25
S'mP=S\xb5\xf5!B\xce\t\x94I\x9cd\xac\x8d'
p302
ssS'_Users_rick_envs_django-tags-input_lib_python2_7_site-packages_django_contrib_admin_util'
p303
(dp304
g29
(dp305
g31
S'_Users_rick_envs_django-tags-input_lib_python2_7_site-packages_django_contrib_admin_util.html'
p306
sg33
S'/Users/rick/envs/django-tags-input/lib/python2.7/site-packages/django/contrib/admin/util'
p307
sg35
g13
(g14
g15
NtRp308
(dp309
g18
I1
sg19
I0
sg20
I275
sg21
I0
sg22
I0
sg23
I265
sg24
I0
sbssg38
S'\xd92\xf8\x8c\xafr\xf1vF\xe0\x18\xee\x1c<N\xab'
p310
ssS'django_core_serializers_python'
p311
(dp312
g6
(dp313
g8
S'django_core_serializers_python.html'
p314
sg10
S'django.core.serializers.python'
p315
sg12
g13
(g14
g15
NtRp316
(dp317
g18
I1
sg19
I0
sg20
I86
sg21
I0
sg22
I0
sg23
I67
sg24
I0
sbssg25
S"\xcf\xb3s\n\xa1\x83\xbc\xc1\xe4W\xfe2'\xb9b\xce"
p318
ssS'_Users_rick_envs_django-tags-input_lib_python2_7_site-packages_django_contrib_auth_context_processors'
p319
(dp320
g29
(dp321
g31
S'_Users_rick_envs_django-tags-input_lib_python2_7_site-packages_django_contrib_auth_context_processors.html'
p322
sg33
S'/Users/rick/envs/django-tags-input/lib/python2.7/site-packages/django/contrib/auth/context_processors'
p323
sg35
g13
(g14
g15
NtRp324
(dp325
g18
I1
sg19
I0
sg20
I31
sg21
I0
sg22
I0
sg23
I14
sg24
I0
sbssg38
S'\xf6\xa8D\xb1\xa4\xb7\xf5F\n\x86\r\x8c\x1d\xa8\x06\x96'
p326
ssS'_Users_rick_envs_django-tags-input_lib_python2_7_site-packages_django_db_models_loading'
p327
(dp328
g29
(dp329
g31
S'_Users_rick_envs_django-tags-input_lib_python2_7_site-packages_django_db_models_loading.html'
p330
sg33
S'/Users/rick/envs/django-tags-input/lib/python2.7/site-packages/django/db/models/loading'
p331
sg35
g13
(g14
g15
NtRp332
(dp333
g18
I1
sg19
I0
sg20
I121
sg21
I0
sg22
I0
sg23
I51
sg24
I0
sbssg38
S't\x19\xd5\x01\x81ua\xd7\xa6n\xdc\x93\xa9\xdc\xe5\x1f'
p334
ssS'django_contrib_sessions_backends_db'
p335
(dp336
g6
(dp337
g8
S'django_contrib_sessions_backends_db.html'
p338
sg10
S'django.contrib.sessions.backends.db'
p339
sg12
g13
(g14
g15
NtRp340
(dp341
g18
I1
sg19
I0
sg20
I50
sg21
I0
sg22
I0
sg23
I15
sg24
I0
sbssg25
S'\xfa\x17\xdeu/\x053\xbe\xbd\x13\x1c\xee\x1f\x1dW\n'
p342
ssS'example_autocompletionexample_models'
p343
(dp344
g6
(dp345
g8
S'example_autocompletionexample_models.html'
p346
sg10
S'example.autocompletionexample.models'
p347
sg12
g13
(g14
g15
NtRp348
(dp349
g18
I1
sg19
I0
sg20
I25
sg21
I0
sg22
I0
sg23
I0
sg24
I0
sbssg25
S'Vg\xa4\xda\xe6U\x9651\xd0Sio\xf3p\x93'
p350
ssS'django_contrib_admindocs_views'
p351
(dp352
g6
(dp353
g8
S'django_contrib_admindocs_views.html'
p354
sg10
S'django.contrib.admindocs.views'
p355
sg12
g13
(g14
g15
NtRp356
(dp357
g18
I1
sg19
I0
sg20
I216
sg21
I0
sg22
I0
sg23
I176
sg24
I0
sbssg25
S'\xb7\xe4r\xb0\x16}\x0c\x16\xe4\x00\x90\x89\xffj\xd9\xb5'
p358
ssS'_Users_rick_envs_django-tags-input_lib_python2_7_site-packages_django_contrib_admin_views_decorators'
p359
(dp360
g29
(dp361
g31
S'_Users_rick_envs_django-tags-input_lib_python2_7_site-packages_django_contrib_admin_views_decorators.html'
p362
sg33
S'/Users/rick/envs/django-tags-input/lib/python2.7/site-packages/django/contrib/admin/views/decorators'
p363
sg35
g13
(g14
g15
NtRp364
(dp365
g18
I1
sg19
I0
sg20
I13
sg21
I0
sg22
I0
sg23
I5
sg24
I0
sbssg38
S'Q\x9d\x8f\x94\xe6:N\xd9\r0\x9b\x9242\x13\xbe'
p366
ssS'autocompletionexample_tests'
p367
(dp368
g29
(dp369
g31
S'autocompletionexample_tests.html'
p370
sg33
S'autocompletionexample/tests'
p371
sg35
g13
(g14
g15
NtRp372
(dp373
g18
I1
sg19
I0
sg20
I4
sg21
I0
sg22
I0
sg23
I0
sg24
I0
sbssg38
S'z\xb4?\\P\xc5\xe50it\x10\xb1\xbb\xc9j\x00'
p374
ssS'_Users_rick_envs_django-tags-input_lib_python2_7_site-packages_django_utils_xmlutils'
p375
(dp376
g29
(dp377
g31
S'_Users_rick_envs_django-tags-input_lib_python2_7_site-packages_django_utils_xmlutils.html'
p378
sg33
S'/Users/rick/envs/django-tags-input/lib/python2.7/site-packages/django/utils/xmlutils'
p379
sg35
g13
(g14
g15
NtRp380
(dp381
g18
I1
sg19
I0
sg20
I8
sg21
I0
sg22
I0
sg23
I5
sg24
I0
sbssg38
S'\xf1J\xb5(\x1cm\xf1\x8bQ\xab\x89\xc1\xce\x91R\x8f'
p382
ssS'_Users_rick_envs_django-tags-input_lib_python2_7_site-packages_django_contrib_admin_widgets'
p383
(dp384
g29
(dp385
g31
S'_Users_rick_envs_django-tags-input_lib_python2_7_site-packages_django_contrib_admin_widgets.html'
p386
sg33
S'/Users/rick/envs/django-tags-input/lib/python2.7/site-packages/django/contrib/admin/widgets'
p387
sg35
g13
(g14
g15
NtRp388
(dp389
g18
I1
sg19
I0
sg20
I223
sg21
I0
sg22
I0
sg23
I181
sg24
I0
sbssg38
S'\xe9\xbc\xdfR\xb3\xa6\x18\xc2T\x0f\x9eY\x9d\x8e\x8bx'
p390
ssS'_Users_rick_envs_django-tags-input_lib_python2_7_site-packages_django_nose_plugin'
p391
(dp392
g29
(dp393
g31
S'_Users_rick_envs_django-tags-input_lib_python2_7_site-packages_django_nose_plugin.html'
p394
sg33
S'/Users/rick/envs/django-tags-input/lib/python2.7/site-packages/django_nose/plugin'
p395
sg35
g13
(g14
g15
NtRp396
(dp397
g18
I1
sg19
I0
sg20
I81
sg21
I0
sg22
I0
sg23
I65
sg24
I0
sbssg38
S'\xe0\x96\xc9\x87\xe8_\\z\x82\xcc\x9fCRB\xa9\xb6'
p398
ssS'_Users_rick_envs_django-tags-input_lib_python2_7_site-packages_django_db_models_sql_subqueries'
p399
(dp400
g29
(dp401
g31
S'_Users_rick_envs_django-tags-input_lib_python2_7_site-packages_django_db_models_sql_subqueries.html'
p402
sg33
S'/Users/rick/envs/django-tags-input/lib/python2.7/site-packages/django/db/models/sql/subqueries'
p403
sg35
g13
(g14
g15
NtRp404
(dp405
g18
I1
sg19
I0
sg20
I136
sg21
I0
sg22
I0
sg23
I102
sg24
I0
sbssg38
S'\x8aV}\x80\xd2A\x02\x84\x89\xdd(Mw\xb57\xd5'
p406
ssS'_Users_rick_envs_django-tags-input_lib_python2_7_site-packages_django_contrib_sessions_backends___init__'
p407
(dp408
g29
(dp409
g31
S'_Users_rick_envs_django-tags-input_lib_python2_7_site-packages_django_contrib_sessions_backends___init__.html'
p410
sg33
S'/Users/rick/envs/django-tags-input/lib/python2.7/site-packages/django/contrib/sessions/backends/__init__'
p411
sg35
g13
(g14
g15
NtRp412
(dp413
g18
I1
sg19
I0
sg20
I0
sg21
I0
sg22
I0
sg23
I0
sg24
I0
sbssg38
S'\xb0\xc8pN\xaf>\xa0\xbaz\x144\xe0A9\xb8?'
p414
ssS'_Users_rick_envs_django-tags-input_lib_python2_7_site-packages_django_forms_formsets'
p415
(dp416
g29
(dp417
g31
S'_Users_rick_envs_django-tags-input_lib_python2_7_site-packages_django_forms_formsets.html'
p418
sg33
S'/Users/rick/envs/django-tags-input/lib/python2.7/site-packages/django/forms/formsets'
p419
sg35
g13
(g14
g15
NtRp420
(dp421
g18
I1
sg19
I0
sg20
I212
sg21
I0
sg22
I0
sg23
I209
sg24
I0
sbssg38
S'\xbf\xdbnPn"\xe5\xf3@\xc1^\x03\x1c\r8`'
p422
ssS'_Users_rick_envs_django-tags-input_lib_python2_7_site-packages_django_forms_models'
p423
(dp424
g29
(dp425
g31
S'_Users_rick_envs_django-tags-input_lib_python2_7_site-packages_django_forms_models.html'
p426
sg33
S'/Users/rick/envs/django-tags-input/lib/python2.7/site-packages/django/forms/models'
p427
sg35
g13
(g14
g15
NtRp428
(dp429
g18
I1
sg19
I0
sg20
I588
sg21
I0
sg22
I0
sg23
I414
sg24
I0
sbssg38
S'\xa0+a\xef\xfc\x12UC\xaduIQ\x8a\xf7\xc7w'
p430
ssS'_Users_rick_envs_django-tags-input_lib_python2_7_site-packages_django_db_transaction'
p431
(dp432
g29
(dp433
g31
S'_Users_rick_envs_django-tags-input_lib_python2_7_site-packages_django_db_transaction.html'
p434
sg33
S'/Users/rick/envs/django-tags-input/lib/python2.7/site-packages/django/db/transaction'
p435
sg35
g13
(g14
g15
NtRp436
(dp437
g18
I1
sg19
I0
sg20
I135
sg21
I0
sg22
I0
sg23
I82
sg24
I0
sbssg38
S'U\x88\xf9\xb7-5!\xa1S\xa0\x16\xcc\xdc\xe1\x06\x03'
p438
ssS'_Users_rick_envs_django-tags-input_lib_python2_7_site-packages_django_db_models_sql_compiler'
p439
(dp440
g29
(dp441
g31
S'_Users_rick_envs_django-tags-input_lib_python2_7_site-packages_django_db_models_sql_compiler.html'
p442
sg33
S'/Users/rick/envs/django-tags-input/lib/python2.7/site-packages/django/db/models/sql/compiler'
p443
sg35
g13
(g14
g15
NtRp444
(dp445
g18
I1
sg19
I0
sg20
I659
sg21
I0
sg22
I0
sg23
I334
sg24
I0
sbssg38
S'\x84\x94\x82M\xd1\x93\x91\xfe@Eby\x11\xce\xadA'
p446
ssS'_Users_rick_envs_django-tags-input_lib_python2_7_site-packages_django_conf_urls___init__'
p447
(dp448
g29
(dp449
g31
S'_Users_rick_envs_django-tags-input_lib_python2_7_site-packages_django_conf_urls___init__.html'
p450
sg33
S'/Users/rick/envs/django-tags-input/lib/python2.7/site-packages/django/conf/urls/__init__'
p451
sg35
g13
(g14
g15
NtRp452
(dp453
g18
I1
sg19
I0
sg20
I41
sg21
I0
sg22
I0
sg23
I4
sg24
I0
sbssg38
S'~\xf4\xeaz\xf19\xd8Qm<1\xbc\x91\x96\x89\xb8'
p454
ssS'_Users_rick_envs_django-tags-input_lib_python2_7_site-packages_django_utils_text'
p455
(dp456
g29
(dp457
g31
S'_Users_rick_envs_django-tags-input_lib_python2_7_site-packages_django_utils_text.html'
p458
sg33
S'/Users/rick/envs/django-tags-input/lib/python2.7/site-packages/django/utils/text'
p459
sg35
g13
(g14
g15
NtRp460
(dp461
g18
I1
sg19
I0
sg20
I239
sg21
I0
sg22
I0
sg23
I224
sg24
I0
sbssg38
S'\xd5S\x9d\xe3\x8em\xec\xa7Q4D\x91\x9d\xfd)\x98'
p462
ssS'_Users_rick_envs_django-tags-input_lib_python2_7_site-packages_nose_importer'
p463
(dp464
g29
(dp465
g31
S'_Users_rick_envs_django-tags-input_lib_python2_7_site-packages_nose_importer.html'
p466
sg33
S'/Users/rick/envs/django-tags-input/lib/python2.7/site-packages/nose/importer'
p467
sg35
g13
(g14
g15
NtRp468
(dp469
g18
I1
sg19
I0
sg20
I101
sg21
I0
sg22
I0
sg23
I38
sg24
I0
sbssg38
S'\xb0\xc8MW$|\xea\x84\xd1\xaf\xdb\xdfAD\xa2\xa9'
p470
ssS'_Users_rick_envs_django-tags-input_lib_python2_7_site-packages_django_contrib_admindocs_urls'
p471
(dp472
g29
(dp473
g31
S'_Users_rick_envs_django-tags-input_lib_python2_7_site-packages_django_contrib_admindocs_urls.html'
p474
sg33
S'/Users/rick/envs/django-tags-input/lib/python2.7/site-packages/django/contrib/admindocs/urls'
p475
sg35
g13
(g14
g15
NtRp476
(dp477
g18
I1
sg19
I0
sg20
I3
sg21
I0
sg22
I0
sg23
I0
sg24
I0
sbssg38
S'\xc6}\xb7CJ\xd9j"(v\xd3\x05{\x82\xa8T'
p478
ssS'django_contrib_admin_templatetags_admin_urls'
p479
(dp480
g6
(dp481
g8
S'django_contrib_admin_templatetags_admin_urls.html'
p482
sg10
S'django.contrib.admin.templatetags.admin_urls'
p483
sg12
g13
(g14
g15
NtRp484
(dp485
g18
I1
sg19
I0
sg20
I8
sg21
I0
sg22
I0
sg23
I0
sg24
I0
sbssg25
S'\xa0>\xa5\x7f\xda\x194\xe49\xea[_\xc2\xff\x99\x1b'
p486
ssS'django_core_management_sql'
p487
(dp488
g6
(dp489
g8
S'django_core_management_sql.html'
p490
sg10
S'django.core.management.sql'
p491
sg12
g13
(g14
g15
NtRp492
(dp493
g18
I1
sg19
I0
sg20
I115
sg21
I0
sg22
I0
sg23
I77
sg24
I0
sbssg25
S'\x1b\xea\x0eMq\xfe\xd2\x02z\xe7\x0c\xd0cV\xb7.'
p494
ssS'_Users_rick_envs_django-tags-input_lib_python2_7_site-packages_django_templatetags_l10n'
p495
(dp496
g29
(dp497
g31
S'_Users_rick_envs_django-tags-input_lib_python2_7_site-packages_django_templatetags_l10n.html'
p498
sg33
S'/Users/rick/envs/django-tags-input/lib/python2.7/site-packages/django/templatetags/l10n'
p499
sg35
g13
(g14
g15
NtRp500
(dp501
g18
I1
sg19
I0
sg20
I32
sg21
I0
sg22
I0
sg23
I20
sg24
I0
sbssg38
S'A\xe5-\xda\xd3\xdb}\xe1\xbd\xa5D\x1b\x1a$r\xdc'
p502
ssS'django_contrib_messages_storage_fallback'
p503
(dp504
g6
(dp505
g8
S'django_contrib_messages_storage_fallback.html'
p506
sg10
S'django.contrib.messages.storage.fallback'
p507
sg12
g13
(g14
g15
NtRp508
(dp509
g18
I1
sg19
I0
sg20
I29
sg21
I0
sg22
I0
sg23
I0
sg24
I0
sbssg25
S'\xd3\x1e\xb8\x90\x93\x9f\xf9\x19\xa0\x8d yx\xc3\xd1s'
p510
ssS'django_contrib_admindocs_urls'
p511
(dp512
g6
(dp513
g8
S'django_contrib_admindocs_urls.html'
p514
sg10
S'django.contrib.admindocs.urls'
p515
sg12
g13
(g14
g15
NtRp516
(dp517
g18
I1
sg19
I0
sg20
I3
sg21
I0
sg22
I0
sg23
I0
sg24
I0
sbssg25
S'\xc6}\xb7CJ\xd9j"(v\xd3\x05{\x82\xa8T'
p518
ssS'_Users_rick_envs_django-tags-input_lib_python2_7_site-packages_django_forms_widgets'
p519
(dp520
g29
(dp521
g31
S'_Users_rick_envs_django-tags-input_lib_python2_7_site-packages_django_forms_widgets.html'
p522
sg33
S'/Users/rick/envs/django-tags-input/lib/python2.7/site-packages/django/forms/widgets'
p523
sg35
g13
(g14
g15
NtRp524
(dp525
g18
I1
sg19
I0
sg20
I565
sg21
I0
sg22
I0
sg23
I452
sg24
I0
sbssg38
S'ebel>\x02\xee\xc1\xacn[\xedMnx"'
p526
ssS'_Users_rick_envs_django-tags-input_lib_python2_7_site-packages_django_db_models_deletion'
p527
(dp528
g29
(dp529
g31
S'_Users_rick_envs_django-tags-input_lib_python2_7_site-packages_django_db_models_deletion.html'
p530
sg33
S'/Users/rick/envs/django-tags-input/lib/python2.7/site-packages/django/db/models/deletion'
p531
sg35
g13
(g14
g15
NtRp532
(dp533
g18
I1
sg19
I0
sg20
I173
sg21
I0
sg22
I0
sg23
I89
sg24
I0
sbssg38
S'\xb0*\xc5bp\x15\x85\xee\x85\x1d\x06\xdb\x03\x96\xafD'
p534
ssS'_Users_rick_envs_django-tags-input_lib_python2_7_site-packages_django_contrib_auth_models'
p535
(dp536
g29
(dp537
g31
S'_Users_rick_envs_django-tags-input_lib_python2_7_site-packages_django_contrib_auth_models.html'
p538
sg33
S'/Users/rick/envs/django-tags-input/lib/python2.7/site-packages/django/contrib/auth/models'
p539
sg35
g13
(g14
g15
NtRp540
(dp541
g18
I1
sg19
I0
sg20
I270
sg21
I0
sg22
I0
sg23
I241
sg24
I0
sbssg38
S'\x83+\xc8\x0f\xf2:\x1b\'^\xae\x1e\xf4RZ"\xf0'
p542
ssS'_Users_rick_envs_django-tags-input_lib_python2_7_site-packages_django_core_urlresolvers'
p543
(dp544
g29
(dp545
g31
S'_Users_rick_envs_django-tags-input_lib_python2_7_site-packages_django_core_urlresolvers.html'
p546
sg33
S'/Users/rick/envs/django-tags-input/lib/python2.7/site-packages/django/core/urlresolvers'
p547
sg35
g13
(g14
g15
NtRp548
(dp549
g18
I1
sg19
I0
sg20
I349
sg21
I0
sg22
I0
sg23
I157
sg24
I0
sbssg38
S'w\x8a\xf8\x151\x1e\xb9\xda\x1d\xbc\xddH\xf5\xd5me'
p550
ssS'django_utils_simplejson'
p551
(dp552
g6
(dp553
g8
S'django_utils_simplejson.html'
p554
sg10
S'django.utils.simplejson'
p555
sg12
g13
(g14
g15
NtRp556
(dp557
g18
I1
sg19
I0
sg20
I14
sg21
I0
sg22
I0
sg23
I4
sg24
I0
sbssg25
S'\xc5\xe7\x9e4\x0c\xa8\x83\x0e\x03\x15\xd64\x11~\\x'
p558
ssS'_Users_rick_envs_django-tags-input_lib_python2_7_site-packages_django_contrib_auth_management___init__'
p559
(dp560
g29
(dp561
g31
S'_Users_rick_envs_django-tags-input_lib_python2_7_site-packages_django_contrib_auth_management___init__.html'
p562
sg33
S'/Users/rick/envs/django-tags-input/lib/python2.7/site-packages/django/contrib/auth/management/__init__'
p563
sg35
g13
(g14
g15
NtRp564
(dp565
g18
I1
sg19
I0
sg20
I101
sg21
I0
sg22
I0
sg23
I51
sg24
I0
sbssg38
S'ko\x86\x1b\xcf\x9e~\x05d\xde\xe2\x94\xc0\x9b\xb4\xae'
p566
ssS'_Users_rick_envs_django-tags-input_lib_python2_7_site-packages_django_core_management_color'
p567
(dp568
g29
(dp569
g31
S'_Users_rick_envs_django-tags-input_lib_python2_7_site-packages_django_core_management_color.html'
p570
sg33
S'/Users/rick/envs/django-tags-input/lib/python2.7/site-packages/django/core/management/color'
p571
sg35
g13
(g14
g15
NtRp572
(dp573
g18
I1
sg19
I0
sg20
I28
sg21
I0
sg22
I0
sg23
I9
sg24
I0
sbssg38
S"'\xa7\xf3\xb4'\x10\xb1\xad*\xad\x97\xa1\xf9:\xf3\xc2"
p574
ssS'django_contrib_admindocs_utils'
p575
(dp576
g6
(dp577
g8
S'django_contrib_admindocs_utils.html'
p578
sg10
S'django.contrib.admindocs.utils'
p579
sg12
g13
(g14
g15
NtRp580
(dp581
g18
I1
sg19
I0
sg20
I63
sg21
I0
sg22
I0
sg23
I46
sg24
I0
sbssg25
S'@\xf1\x0bZ\xc8[g\x89fX\xc4\x8biP,K'
p582
ssS'_Users_rick_envs_django-tags-input_lib_python2_7_site-packages_django_utils_tree'
p583
(dp584
g29
(dp585
g31
S'_Users_rick_envs_django-tags-input_lib_python2_7_site-packages_django_utils_tree.html'
p586
sg33
S'/Users/rick/envs/django-tags-input/lib/python2.7/site-packages/django/utils/tree'
p587
sg35
g13
(g14
g15
NtRp588
(dp589
g18
I1
sg19
I0
sg20
I64
sg21
I0
sg22
I0
sg23
I27
sg24
I0
sbssg38
S'\x94\x9fI\x16v\xb7\xd8\xa21\xf0\xcf\xaa\xbdd\xecp'
p590
ssS'_Users_rick_envs_django-tags-input_lib_python2_7_site-packages_django_core_cache___init__'
p591
(dp592
g29
(dp593
g31
S'_Users_rick_envs_django-tags-input_lib_python2_7_site-packages_django_core_cache___init__.html'
p594
sg33
S'/Users/rick/envs/django-tags-input/lib/python2.7/site-packages/django/core/cache/__init__'
p595
sg35
g13
(g14
g15
NtRp596
(dp597
g18
I1
sg19
I0
sg20
I65
sg21
I0
sg22
I0
sg23
I49
sg24
I0
sbssg38
S'\xd4;\xe72\xd2\x8d\x9dZo\xf1"\xa5\xce$u{'
p598
ssS'django_template_loaders_filesystem'
p599
(dp600
g6
(dp601
g8
S'django_template_loaders_filesystem.html'
p602
sg10
S'django.template.loaders.filesystem'
p603
sg12
g13
(g14
g15
NtRp604
(dp605
g18
I1
sg19
I0
sg20
I29
sg21
I0
sg22
I0
sg23
I12
sg24
I0
sbssg25
S'z\xba\xb7[M\xd9N\xd7\xb2\x1e>B\x98\x10\xedn'
p606
ssS'_Users_rick_envs_django-tags-input_lib_python2_7_site-packages_django_http_utils'
p607
(dp608
g29
(dp609
g31
S'_Users_rick_envs_django-tags-input_lib_python2_7_site-packages_django_http_utils.html'
p610
sg33
S'/Users/rick/envs/django-tags-input/lib/python2.7/site-packages/django/http/utils'
p611
sg35
g13
(g14
g15
NtRp612
(dp613
g18
I1
sg19
I0
sg20
I43
sg21
I0
sg22
I0
sg23
I31
sg24
I0
sbssg38
S'YO\xb1=\xca\xd6\x95\x11k<\xc5E\x01\xed\xad\xea'
p614
ssS'_Users_rick_envs_django-tags-input_lib_python2_7_site-packages_nose_core'
p615
(dp616
g29
(dp617
g31
S'_Users_rick_envs_django-tags-input_lib_python2_7_site-packages_nose_core.html'
p618
sg33
S'/Users/rick/envs/django-tags-input/lib/python2.7/site-packages/nose/core'
p619
sg35
g13
(g14
g15
NtRp620
(dp621
g18
I1
sg19
I0
sg20
I162
sg21
I0
sg22
I0
sg23
I139
sg24
I0
sbssg38
S"\x13%[8\xfe\xd2\n\x06\x9c\x96&2=i']"
p622
ssS'_Users_rick_envs_django-tags-input_lib_python2_7_site-packages_django_db_backends_creation'
p623
(dp624
g29
(dp625
g31
S'_Users_rick_envs_django-tags-input_lib_python2_7_site-packages_django_db_backends_creation.html'
p626
sg33
S'/Users/rick/envs/django-tags-input/lib/python2.7/site-packages/django/db/backends/creation'
p627
sg35
g13
(g14
g15
NtRp628
(dp629
g18
I1
sg19
I0
sg20
I228
sg21
I0
sg22
I0
sg23
I138
sg24
I0
sbssg38
S'\xf6?\xbc\xd0\x01\xe6~\xa6\xbbS\xea\xcd\xe8O\x99@'
p630
ssS'_Users_rick_envs_django-tags-input_lib_python2_7_site-packages_nose_plugins_manager'
p631
(dp632
g29
(dp633
g31
S'_Users_rick_envs_django-tags-input_lib_python2_7_site-packages_nose_plugins_manager.html'
p634
sg33
S'/Users/rick/envs/django-tags-input/lib/python2.7/site-packages/nose/plugins/manager'
p635
sg35
g13
(g14
g15
NtRp636
(dp637
g18
I1
sg19
I0
sg20
I265
sg21
I0
sg22
I0
sg23
I232
sg24
I0
sbssg38
S'\x9f\xd11\xf2\xf7\xd75~]\t\x8bv\x89\x07\x06S'
p638
ssS'_Users_rick_envs_django-tags-input_lib_python2_7_site-packages_django_contrib_staticfiles_utils'
p639
(dp640
g29
(dp641
g31
S'_Users_rick_envs_django-tags-input_lib_python2_7_site-packages_django_contrib_staticfiles_utils.html'
p642
sg33
S'/Users/rick/envs/django-tags-input/lib/python2.7/site-packages/django/contrib/staticfiles/utils'
p643
sg35
g13
(g14
g15
NtRp644
(dp645
g18
I1
sg19
I0
sg20
I37
sg21
I0
sg22
I0
sg23
I33
sg24
I0
sbssg38
S'Y\xf0\xa4T*\x9fev\x93 \x00"\x93c\x94k'
p646
ssS'django_contrib_admindocs_models'
p647
(dp648
g6
(dp649
g8
S'django_contrib_admindocs_models.html'
p650
sg10
S'django.contrib.admindocs.models'
p651
sg12
g13
(g14
g15
NtRp652
(dp653
g18
I1
sg19
I0
sg20
I0
sg21
I0
sg22
I0
sg23
I0
sg24
I0
sbssg25
S' +\x8c\xfb\xc3\x19\x86\x1e\xcb\x86\xee\x93{\xa0wZ'
p654
ssS'_Users_rick_workspace_django-tags-input_tags_input_fields'
p655
(dp656
g29
(dp657
g31
S'_Users_rick_workspace_django-tags-input_tags_input_fields.html'
p658
sg33
S'/Users/rick/workspace/django-tags-input/tags_input/fields'
p659
sg35
g13
(g14
g15
NtRp660
(dp661
g18
I1
sg19
I0
sg20
I43
sg21
I0
sg22
I0
sg23
I3
sg24
I0
sbssg38
S'\xa3"\'\xb3\x18!p\xf9Ew\x87z\x18\r\xc1\x01'
p662
ssS'tags_input_urls'
p663
(dp664
g6
(dp665
g8
S'tags_input_urls.html'
p666
sg10
S'tags_input.urls'
p667
sg12
g13
(g14
g15
NtRp668
(dp669
g18
I1
sg19
I0
sg20
I2
sg21
I0
sg22
I0
sg23
I0
sg24
I0
sbssg25
S'\x8f5\xd5U\xad\xbc\xe4y\x04\x08Ux+\x07\xb3\xf5'
p670
ssS'_Users_rick_envs_django-tags-input_lib_python2_7_site-packages_django_core_cache_backends_base'
p671
(dp672
g29
(dp673
g31
S'_Users_rick_envs_django-tags-input_lib_python2_7_site-packages_django_core_cache_backends_base.html'
p674
sg33
S'/Users/rick/envs/django-tags-input/lib/python2.7/site-packages/django/core/cache/backends/base'
p675
sg35
g13
(g14
g15
NtRp676
(dp677
g18
I1
sg19
I0
sg20
I99
sg21
I0
sg22
I0
sg23
I83
sg24
I0
sbssg38
S'7\xbc 5\xf8\xe5\xb8>\xbc\xcdP\x9dLV\xc7\xcf'
p678
ssS'_Users_rick_envs_django-tags-input_lib_python2_7_site-packages_django_utils_cache'
p679
(dp680
g29
(dp681
g31
S'_Users_rick_envs_django-tags-input_lib_python2_7_site-packages_django_utils_cache.html'
p682
sg33
S'/Users/rick/envs/django-tags-input/lib/python2.7/site-packages/django/utils/cache'
p683
sg35
g13
(g14
g15
NtRp684
(dp685
g18
I1
sg19
I0
sg20
I126
sg21
I0
sg22
I0
sg23
I97
sg24
I0
sbssg38
S'\xbd\x15\x85f\x99\x0cA?\xb9;\x06\xc8d\x0e\xda='
p686
ssS'_Users_rick_envs_django-tags-input_lib_python2_7_site-packages_django_contrib_messages_storage_cookie'
p687
(dp688
g29
(dp689
g31
S'_Users_rick_envs_django-tags-input_lib_python2_7_site-packages_django_contrib_messages_storage_cookie.html'
p690
sg33
S'/Users/rick/envs/django-tags-input/lib/python2.7/site-packages/django/contrib/messages/storage/cookie'
p691
sg35
g13
(g14
g15
NtRp692
(dp693
g18
I1
sg19
I0
sg20
I83
sg21
I0
sg22
I0
sg23
I16
sg24
I0
sbssg38
S'\xf2\xe7\xb8\x0ek+ez\xe7\x12MA\xdb\xe6\xa6\xd2'
p694
ssS'_Users_rick_envs_django-tags-input_lib_python2_7_site-packages_django_core_management_validation'
p695
(dp696
g29
(dp697
g31
S'_Users_rick_envs_django-tags-input_lib_python2_7_site-packages_django_core_management_validation.html'
p698
sg33
S'/Users/rick/envs/django-tags-input/lib/python2.7/site-packages/django/core/management/validation'
p699
sg35
g13
(g14
g15
NtRp700
(dp701
g18
I1
sg19
I0
sg20
I246
sg21
I0
sg22
I0
sg23
I109
sg24
I0
sbssg38
S'\xbdm\xc08\x90\x90\x0e\xdf\xe1M\xf5\x82\xdf^\x13\x01'
p702
ssS'_Users_rick_envs_django-tags-input_lib_python2_7_site-packages_django_views_decorators_cache'
p703
(dp704
g29
(dp705
g31
S'_Users_rick_envs_django-tags-input_lib_python2_7_site-packages_django_views_decorators_cache.html'
p706
sg33
S'/Users/rick/envs/django-tags-input/lib/python2.7/site-packages/django/views/decorators/cache'
p707
sg35
g13
(g14
g15
NtRp708
(dp709
g18
I1
sg19
I0
sg20
I40
sg21
I0
sg22
I0
sg23
I35
sg24
I0
sbssg38
S'\x15\xfaAt7\xd3\x05 $s|"\x05\x91Iz'
p710
ssS'xml_sax_expatreader'
p711
(dp712
g6
(dp713
g8
S'xml_sax_expatreader.html'
p714
sg10
S'xml.sax.expatreader'
p715
sg12
g13
(g14
g15
NtRp716
(dp717
g18
I1
sg19
I0
sg20
I279
sg21
I0
sg22
I0
sg23
I279
sg24
I0
sbssg25
S'\x9eRmo:\x95|}@KT\xdb\x16o\xdf\xf7'
p718
ssS'_Users_rick_envs_django-tags-input_lib_python2_7_site-packages_django_contrib_admin_views___init__'
p719
(dp720
g29
(dp721
g31
S'_Users_rick_envs_django-tags-input_lib_python2_7_site-packages_django_contrib_admin_views___init__.html'
p722
sg33
S'/Users/rick/envs/django-tags-input/lib/python2.7/site-packages/django/contrib/admin/views/__init__'
p723
sg35
g13
(g14
g15
NtRp724
(dp725
g18
I1
sg19
I0
sg20
I0
sg21
I0
sg22
I0
sg23
I0
sg24
I0
sbssg38
S'\xb0\xc8pN\xaf>\xa0\xbaz\x144\xe0A9\xb8?'
p726
ssS'_Users_rick_envs_django-tags-input_lib_python2_7_site-packages_django_contrib_admin___init__'
p727
(dp728
g29
(dp729
g31
S'_Users_rick_envs_django-tags-input_lib_python2_7_site-packages_django_contrib_admin___init__.html'
p730
sg33
S'/Users/rick/envs/django-tags-input/lib/python2.7/site-packages/django/contrib/admin/__init__'
p731
sg35
g13
(g14
g15
NtRp732
(dp733
g18
I1
sg19
I0
sg20
I19
sg21
I0
sg22
I0
sg23
I7
sg24
I0
sbssg38
S'\x9d\xb8bI\xb4q\xa4\x82\xedf<3\x8b\r\xd7\x9e'
p734
ssS'django_contrib_auth_management'
p735
(dp736
g6
(dp737
g8
S'django_contrib_auth_management.html'
p738
sg10
S'django.contrib.auth.management'
p739
sg12
g13
(g14
g15
NtRp740
(dp741
g18
I1
sg19
I0
sg20
I101
sg21
I0
sg22
I0
sg23
I51
sg24
I0
sbssg25
S'ko\x86\x1b\xcf\x9e~\x05d\xde\xe2\x94\xc0\x9b\xb4\xae'
p742
ssS'_Users_rick_envs_django-tags-input_lib_python2_7_site-packages_django_db_models_related'
p743
(dp744
g29
(dp745
g31
S'_Users_rick_envs_django-tags-input_lib_python2_7_site-packages_django_db_models_related.html'
p746
sg33
S'/Users/rick/envs/django-tags-input/lib/python2.7/site-packages/django/db/models/related'
p747
sg35
g13
(g14
g15
NtRp748
(dp749
g18
I1
sg19
I0
sg20
I41
sg21
I0
sg22
I0
sg23
I30
sg24
I0
sbssg38
S'N\xa4\xda~\xc22\x00_`-\x88y\xcd`X\xa9'
p750
ssS'_Users_rick_envs_django-tags-input_lib_python2_7_site-packages_django_test_signals'
p751
(dp752
g29
(dp753
g31
S'_Users_rick_envs_django-tags-input_lib_python2_7_site-packages_django_test_signals.html'
p754
sg33
S'/Users/rick/envs/django-tags-input/lib/python2.7/site-packages/django/test/signals'
p755
sg35
g13
(g14
g15
NtRp756
(dp757
g18
I1
sg19
I0
sg20
I50
sg21
I0
sg22
I0
sg23
I41
sg24
I0
sbssg38
S'\xe0e\xeb\xe9\x05u\xf7b\x02\x04O\xb3\xbb\xdf;\x85'
p758
ssS'_Users_rick_envs_django-tags-input_lib_python2_7_site-packages_django_utils_simplejson'
p759
(dp760
g29
(dp761
g31
S'_Users_rick_envs_django-tags-input_lib_python2_7_site-packages_django_utils_simplejson.html'
p762
sg33
S'/Users/rick/envs/django-tags-input/lib/python2.7/site-packages/django/utils/simplejson'
p763
sg35
g13
(g14
g15
NtRp764
(dp765
g18
I1
sg19
I0
sg20
I14
sg21
I0
sg22
I0
sg23
I4
sg24
I0
sbssg38
S'\xc5\xe7\x9e4\x0c\xa8\x83\x0e\x03\x15\xd64\x11~\\x'
p766
ssS'_Users_rick_envs_django-tags-input_lib_python2_7_site-packages_django_contrib_admindocs_utils'
p767
(dp768
g29
(dp769
g31
S'_Users_rick_envs_django-tags-input_lib_python2_7_site-packages_django_contrib_admindocs_utils.html'
p770
sg33
S'/Users/rick/envs/django-tags-input/lib/python2.7/site-packages/django/contrib/admindocs/utils'
p771
sg35
g13
(g14
g15
NtRp772
(dp773
g18
I1
sg19
I0
sg20
I63
sg21
I0
sg22
I0
sg23
I46
sg24
I0
sbssg38
S'@\xf1\x0bZ\xc8[g\x89fX\xc4\x8biP,K'
p774
ssS'xml_dom_pulldom'
p775
(dp776
g6
(dp777
g8
S'xml_dom_pulldom.html'
p778
sg10
S'xml.dom.pulldom'
p779
sg12
g13
(g14
g15
NtRp780
(dp781
g18
I1
sg19
I0
sg20
I270
sg21
I0
sg22
I0
sg23
I270
sg24
I0
sbssg25
S'!B\x95\xcd\xaah\x00\xa0\x9fgJH\\\xa3\xcdo'
p782
ssS'_Users_rick_envs_django-tags-input_lib_python2_7_site-packages_django_contrib_contenttypes_management'
p783
(dp784
g29
(dp785
g31
S'_Users_rick_envs_django-tags-input_lib_python2_7_site-packages_django_contrib_contenttypes_management.html'
p786
sg33
S'/Users/rick/envs/django-tags-input/lib/python2.7/site-packages/django/contrib/contenttypes/management'
p787
sg35
g13
(g14
g15
NtRp788
(dp789
g18
I1
sg19
I0
sg20
I40
sg21
I0
sg22
I0
sg23
I17
sg24
I0
sbssg38
S'\xe071\x8b\x81A=\xee\xc7+(G\xaa\x12\xb3('
p790
ssS'encodings_latin_1'
p791
(dp792
g6
(dp793
g8
S'encodings_latin_1.html'
p794
sg10
S'encodings.latin_1'
p795
sg12
g13
(g14
g15
NtRp796
(dp797
g18
I1
sg19
I0
sg20
I19
sg21
I0
sg22
I0
sg23
I19
sg24
I0
sbssg25
S"0\xd1.\xd3'V\x08\xd1\xa0\xd9\x9b\xc5\xb8pw}"
p798
ssS'_Users_rick_envs_django-tags-input_lib_python2_7_site-packages_django_core_files_storage'
p799
(dp800
g29
(dp801
g31
S'_Users_rick_envs_django-tags-input_lib_python2_7_site-packages_django_core_files_storage.html'
p802
sg33
S'/Users/rick/envs/django-tags-input/lib/python2.7/site-packages/django/core/files/storage'
p803
sg35
g13
(g14
g15
NtRp804
(dp805
g18
I1
sg19
I0
sg20
I160
sg21
I0
sg22
I0
sg23
I145
sg24
I0
sbssg38
S'[\xefi\xb5\xb4\xb7B\x92\xf3]\xde}\x88:\x0e\xe4'
p806
ssS'_Users_rick_envs_django-tags-input_lib_python2_7_site-packages_django_db_backends_util'
p807
(dp808
g29
(dp809
g31
S'_Users_rick_envs_django-tags-input_lib_python2_7_site-packages_django_db_backends_util.html'
p810
sg33
S'/Users/rick/envs/django-tags-input/lib/python2.7/site-packages/django/db/backends/util'
p811
sg35
g13
(g14
g15
NtRp812
(dp813
g18
I1
sg19
I0
sg20
I94
sg21
I0
sg22
I0
sg23
I85
sg24
I0
sbssg38
S'\x17\x05\x1e\x90\xf07\xcf\xb86T\xf1]-\x08\xbd>'
p814
ssS'django_contrib_admin_models'
p815
(dp816
g6
(dp817
g8
S'django_contrib_admin_models.html'
p818
sg10
S'django.contrib.admin.models'
p819
sg12
g13
(g14
g15
NtRp820
(dp821
g18
I1
sg19
I0
sg20
I52
sg21
I0
sg22
I0
sg23
I15
sg24
I0
sbssg25
S'I\xf3\xac{w\xa6IQ,\x87\xc9ez\xbe\xf4\x88'
p822
ssS'_Users_rick_envs_django-tags-input_lib_python2_7_site-packages_django_template_defaultfilters'
p823
(dp824
g29
(dp825
g31
S'_Users_rick_envs_django-tags-input_lib_python2_7_site-packages_django_template_defaultfilters.html'
p826
sg33
S'/Users/rick/envs/django-tags-input/lib/python2.7/site-packages/django/template/defaultfilters'
p827
sg35
g13
(g14
g15
NtRp828
(dp829
g18
I1
sg19
I0
sg20
I458
sg21
I0
sg22
I0
sg23
I442
sg24
I0
sbssg38
S'\xd1Ph\xac\xf0\x08\xe5t\xde\x7f\x02t|\x11\xaa\xfa'
p830
ssS'django_contrib_messages_storage_session'
p831
(dp832
g6
(dp833
g8
S'django_contrib_messages_storage_session.html'
p834
sg10
S'django.contrib.messages.storage.session'
p835
sg12
g13
(g14
g15
NtRp836
(dp837
g18
I1
sg19
I0
sg20
I13
sg21
I0
sg22
I0
sg23
I5
sg24
I0
sbssg25
S'\xbdy\xe8[\xc0\xe2\x199\x99\x06%\x8f\xff[t5'
p838
ssS'django_contrib_auth_decorators'
p839
(dp840
g6
(dp841
g8
S'django_contrib_auth_decorators.html'
p842
sg10
S'django.contrib.auth.decorators'
p843
sg12
g13
(g14
g15
NtRp844
(dp845
g18
I1
sg19
I0
sg20
I39
sg21
I0
sg22
I0
sg23
I18
sg24
I0
sbssg25
S"\x98\xff\xcf@p\xa2p\xbb\xeb\xf9X~S'\x80T"
p846
ssS'_Users_rick_envs_django-tags-input_lib_python2_7_site-packages_django_contrib_admin_templatetags_admin_modify'
p847
(dp848
g29
(dp849
g31
S'_Users_rick_envs_django-tags-input_lib_python2_7_site-packages_django_contrib_admin_templatetags_admin_modify.html'
p850
sg33
S'/Users/rick/envs/django-tags-input/lib/python2.7/site-packages/django/contrib/admin/templatetags/admin_modify'
p851
sg35
g13
(g14
g15
NtRp852
(dp853
g18
I1
sg19
I0
sg20
I31
sg21
I0
sg22
I0
sg23
I12
sg24
I0
sbssg38
S'\x18v8k>\x82\x07\x90K\xb4\x04\x9e\xd77\x95`'
p854
ssS'_Users_rick_envs_django-tags-input_lib_python2_7_site-packages_django_utils_itercompat'
p855
(dp856
g29
(dp857
g31
S'_Users_rick_envs_django-tags-input_lib_python2_7_site-packages_django_utils_itercompat.html'
p858
sg33
S'/Users/rick/envs/django-tags-input/lib/python2.7/site-packages/django/utils/itercompat'
p859
sg35
g13
(g14
g15
NtRp860
(dp861
g18
I1
sg19
I0
sg20
I23
sg21
I0
sg22
I0
sg23
I16
sg24
I0
sbssg38
S'\xf5k\xc1\x04/9\xb1\x88v j\xbb\xb7\x8c\xb6\xdc'
p862
ssS'_Users_rick_envs_django-tags-input_lib_python2_7_site-packages_django_templatetags_i18n'
p863
(dp864
g29
(dp865
g31
S'_Users_rick_envs_django-tags-input_lib_python2_7_site-packages_django_templatetags_i18n.html'
p866
sg33
S'/Users/rick/envs/django-tags-input/lib/python2.7/site-packages/django/templatetags/i18n'
p867
sg35
g13
(g14
g15
NtRp868
(dp869
g18
I1
sg19
I0
sg20
I234
sg21
I0
sg22
I0
sg23
I124
sg24
I0
sbssg38
S'\x07\xcf\xed\xe91n\xd8\xd2\xa1\x92\xf8\xc90\xcf\xafx'
p870
ssS'django_contrib_messages_storage_cookie'
p871
(dp872
g6
(dp873
g8
S'django_contrib_messages_storage_cookie.html'
p874
sg10
S'django.contrib.messages.storage.cookie'
p875
sg12
g13
(g14
g15
NtRp876
(dp877
g18
I1
sg19
I0
sg20
I83
sg21
I0
sg22
I0
sg23
I16
sg24
I0
sbssg25
S'\xf2\xe7\xb8\x0ek+ez\xe7\x12MA\xdb\xe6\xa6\xd2'
p878
ssS'_Users_rick_workspace_django-tags-input_tags_input_urls'
p879
(dp880
g29
(dp881
g31
S'_Users_rick_workspace_django-tags-input_tags_input_urls.html'
p882
sg33
S'/Users/rick/workspace/django-tags-input/tags_input/urls'
p883
sg35
g13
(g14
g15
NtRp884
(dp885
g18
I1
sg19
I0
sg20
I2
sg21
I0
sg22
I0
sg23
I0
sg24
I0
sbssg38
S'\x8f5\xd5U\xad\xbc\xe4y\x04\x08Ux+\x07\xb3\xf5'
p886
ssS'django_db_models_sql_compiler'
p887
(dp888
g6
(dp889
g8
S'django_db_models_sql_compiler.html'
p890
sg10
S'django.db.models.sql.compiler'
p891
sg12
g13
(g14
g15
NtRp892
(dp893
g18
I1
sg19
I0
sg20
I659
sg21
I0
sg22
I0
sg23
I334
sg24
I0
sbssg25
S'\x84\x94\x82M\xd1\x93\x91\xfe@Eby\x11\xce\xadA'
p894
ssS'_Users_rick_envs_django-tags-input_lib_python2_7_site-packages_django_db_models_query_utils'
p895
(dp896
g29
(dp897
g31
S'_Users_rick_envs_django-tags-input_lib_python2_7_site-packages_django_db_models_query_utils.html'
p898
sg33
S'/Users/rick/envs/django-tags-input/lib/python2.7/site-packages/django/db/models/query_utils'
p899
sg35
g13
(g14
g15
NtRp900
(dp901
g18
I1
sg19
I0
sg20
I92
sg21
I0
sg22
I0
sg23
I87
sg24
I0
sbssg38
S'\xee\x1e\x822\xae{\x1c/\xab\x18\x1c\xec\xb1C\x93\xa5'
p902
ssS'django_template_debug'
p903
(dp904
g6
(dp905
g8
S'django_template_debug.html'
p906
sg10
S'django.template.debug'
p907
sg12
g13
(g14
g15
NtRp908
(dp909
g18
I1
sg19
I0
sg20
I78
sg21
I0
sg22
I0
sg23
I19
sg24
I0
sbssg25
S'\xf2D\x13\xb2\x83[\x14w\xd3\xe6\x82Z1\xb1\xec\xde'
p910
ssS'_Users_rick_envs_django-tags-input_lib_python2_7_site-packages_django_template_defaulttags'
p911
(dp912
g29
(dp913
g31
S'_Users_rick_envs_django-tags-input_lib_python2_7_site-packages_django_template_defaulttags.html'
p914
sg33
S'/Users/rick/envs/django-tags-input/lib/python2.7/site-packages/django/template/defaulttags'
p915
sg35
g13
(g14
g15
NtRp916
(dp917
g18
I1
sg19
I0
sg20
I606
sg21
I0
sg22
I0
sg23
I453
sg24
I0
sbssg38
S'z\x1de\x9d\xe1\xcb\xf1\x13\xf3\x8e\xe0\xebd\xd8\xea6'
p918
ssS'_Users_rick_envs_django-tags-input_lib_python2_7_site-packages_django_forms_util'
p919
(dp920
g29
(dp921
g31
S'_Users_rick_envs_django-tags-input_lib_python2_7_site-packages_django_forms_util.html'
p922
sg33
S'/Users/rick/envs/django-tags-input/lib/python2.7/site-packages/django/forms/util'
p923
sg35
g13
(g14
g15
NtRp924
(dp925
g18
I1
sg19
I0
sg20
I44
sg21
I0
sg22
I0
sg23
I42
sg24
I0
sbssg38
S'\xf4?\x10\x1d\xfc\xea3j\x91\x02\xa0\xe8\x96:6\x82'
p926
ssS'django_contrib_messages_context_processors'
p927
(dp928
g6
(dp929
g8
S'django_contrib_messages_context_processors.html'
p930
sg10
S'django.contrib.messages.context_processors'
p931
sg12
g13
(g14
g15
NtRp932
(dp933
g18
I1
sg19
I0
sg20
I3
sg21
I0
sg22
I0
sg23
I0
sg24
I0
sbssg25
S'U\x86ra\xae$\xce3\xcb\x11\x1d*J\xaag\xd5'
p934
ssS'_Users_rick_envs_django-tags-input_lib_python2_7_site-packages_nose_case'
p935
(dp936
g29
(dp937
g31
S'_Users_rick_envs_django-tags-input_lib_python2_7_site-packages_nose_case.html'
p938
sg33
S'/Users/rick/envs/django-tags-input/lib/python2.7/site-packages/nose/case'
p939
sg35
g13
(g14
g15
NtRp940
(dp941
g18
I1
sg19
I0
sg20
I204
sg21
I0
sg22
I0
sg23
I170
sg24
I0
sbssg38
S'K\xb0~\xd6\x8bB\xcf\x98-\xae\xc67\t\xcd\xc3\xc6'
p942
ssS'tags_input_widgets'
p943
(dp944
g6
(dp945
g8
S'tags_input_widgets.html'
p946
sg10
S'tags_input.widgets'
p947
sg12
g13
(g14
g15
NtRp948
(dp949
g18
I1
sg19
I0
sg20
I40
sg21
I0
sg22
I0
sg23
I2
sg24
I0
sbssg25
S'\x13c\xe8\x1cwE\xefu\xe2\x8f>\xedu"`\xd9'
p950
ssS'_Users_rick_envs_django-tags-input_lib_python2_7_site-packages_django_contrib_admindocs_models'
p951
(dp952
g29
(dp953
g31
S'_Users_rick_envs_django-tags-input_lib_python2_7_site-packages_django_contrib_admindocs_models.html'
p954
sg33
S'/Users/rick/envs/django-tags-input/lib/python2.7/site-packages/django/contrib/admindocs/models'
p955
sg35
g13
(g14
g15
NtRp956
(dp957
g18
I1
sg19
I0
sg20
I0
sg21
I0
sg22
I0
sg23
I0
sg24
I0
sbssg38
S' +\x8c\xfb\xc3\x19\x86\x1e\xcb\x86\xee\x93{\xa0wZ'
p958
ssS'_Users_rick_workspace_django-tags-input_tags_input_admin'
p959
(dp960
g29
(dp961
g31
S'_Users_rick_workspace_django-tags-input_tags_input_admin.html'
p962
sg33
S'/Users/rick/workspace/django-tags-input/tags_input/admin'
p963
sg35
g13
(g14
g15
NtRp964
(dp965
g18
I1
sg19
I0
sg20
I17
sg21
I0
sg22
I0
sg23
I2
sg24
I0
sbssg38
S'\x10\xb1\xe4\x8d\xf9\xf6mhQ:A\xba\xd6\x88u\t'
p966
ssS'_Users_rick_envs_django-tags-input_lib_python2_7_site-packages_django_db_backends_sqlite3_base'
p967
(dp968
g29
(dp969
g31
S'_Users_rick_envs_django-tags-input_lib_python2_7_site-packages_django_db_backends_sqlite3_base.html'
p970
sg33
S'/Users/rick/envs/django-tags-input/lib/python2.7/site-packages/django/db/backends/sqlite3/base'
p971
sg35
g13
(g14
g15
NtRp972
(dp973
g18
I1
sg19
I0
sg20
I233
sg21
I0
sg22
I0
sg23
I179
sg24
I0
sbssg38
S'\x03\xbe\x92\xb2z\xb1]\xf5Z\x87\x8d\\\x19\\\x8f\xc1'
p974
ssS'urls'
p975
(dp976
g29
(dp977
g31
S'urls.html'
p978
sg33
g975
sg35
g13
(g14
g15
NtRp979
(dp980
g18
I1
sg19
I0
sg20
I4
sg21
I0
sg22
I0
sg23
I0
sg24
I0
sbssg38
S"\t\xb0=Qw\xd5')cJ\x84y\x1cA\x13o"
p981
ssS'_Users_rick_envs_django-tags-input_lib_python2_7_site-packages_django_http_cookie'
p982
(dp983
g29
(dp984
g31
S'_Users_rick_envs_django-tags-input_lib_python2_7_site-packages_django_http_cookie.html'
p985
sg33
S'/Users/rick/envs/django-tags-input/lib/python2.7/site-packages/django/http/cookie'
p986
sg35
g13
(g14
g15
NtRp987
(dp988
g18
I1
sg19
I0
sg20
I53
sg21
I0
sg22
I0
sg23
I34
sg24
I0
sbssg38
S'\x92\x98\xb2\x8cj\xbf\x9c\x0c\xe3B\xe0 \x06N\x08\xd4'
p989
ssS'_Users_rick_envs_django-tags-input_lib_python2_7_site-packages_django_contrib_admin_sites'
p990
(dp991
g29
(dp992
g31
S'_Users_rick_envs_django-tags-input_lib_python2_7_site-packages_django_contrib_admin_sites.html'
p993
sg33
S'/Users/rick/envs/django-tags-input/lib/python2.7/site-packages/django/contrib/admin/sites'
p994
sg35
g13
(g14
g15
NtRp995
(dp996
g18
I1
sg19
I0
sg20
I204
sg21
I0
sg22
I0
sg23
I173
sg24
I0
sbssg38
S'\xf8\xd0z\x99\x002e\xb2\xff}\xf0g\xe0H\xbe!'
p997
ssS'_Users_rick_envs_django-tags-input_lib_python2_7_site-packages_django_template_loaders_filesystem'
p998
(dp999
g29
(dp1000
g31
S'_Users_rick_envs_django-tags-input_lib_python2_7_site-packages_django_template_loaders_filesystem.html'
p1001
sg33
S'/Users/rick/envs/django-tags-input/lib/python2.7/site-packages/django/template/loaders/filesystem'
p1002
sg35
g13
(g14
g15
NtRp1003
(dp1004
g18
I1
sg19
I0
sg20
I29
sg21
I0
sg22
I0
sg23
I12
sg24
I0
sbssg38
S'z\xba\xb7[M\xd9N\xd7\xb2\x1e>B\x98\x10\xedn'
p1005
ssS'_Users_rick_envs_django-tags-input_lib_python2_7_site-packages_nose_proxy'
p1006
(dp1007
g29
(dp1008
g31
S'_Users_rick_envs_django-tags-input_lib_python2_7_site-packages_nose_proxy.html'
p1009
sg33
S'/Users/rick/envs/django-tags-input/lib/python2.7/site-packages/nose/proxy'
p1010
sg35
g13
(g14
g15
NtRp1011
(dp1012
g18
I1
sg19
I0
sg20
I108
sg21
I0
sg22
I0
sg23
I75
sg24
I0
sbssg38
S"'\xa4g\x15\xbbL(\xc4v#\x99\x92!S\xda\x14"
p1013
ssS'django_contrib_sessions_models'
p1014
(dp1015
g6
(dp1016
g8
S'django_contrib_sessions_models.html'
p1017
sg10
S'django.contrib.sessions.models'
p1018
sg12
g13
(g14
g15
NtRp1019
(dp1020
g18
I1
sg19
I0
sg20
I23
sg21
I0
sg22
I0
sg23
I7
sg24
I0
sbssg25
S'< \xef\x96\xa0\x8c\xd8\xe9~\n\xbb7\xe7U\xf3['
p1021
ssS'_Users_rick_envs_django-tags-input_lib_python2_7_site-packages_django_contrib_messages_context_processors'
p1022
(dp1023
g29
(dp1024
g31
S'_Users_rick_envs_django-tags-input_lib_python2_7_site-packages_django_contrib_messages_context_processors.html'
p1025
sg33
S'/Users/rick/envs/django-tags-input/lib/python2.7/site-packages/django/contrib/messages/context_processors'
p1026
sg35
g13
(g14
g15
NtRp1027
(dp1028
g18
I1
sg19
I0
sg20
I3
sg21
I0
sg22
I0
sg23
I0
sg24
I0
sbssg38
S'U\x86ra\xae$\xce3\xcb\x11\x1d*J\xaag\xd5'
p1029
ssS'_Users_rick_envs_django-tags-input_lib_python2_7_site-packages_django_template_loader_tags'
p1030
(dp1031
g29
(dp1032
g31
S'_Users_rick_envs_django-tags-input_lib_python2_7_site-packages_django_template_loader_tags.html'
p1033
sg33
S'/Users/rick/envs/django-tags-input/lib/python2.7/site-packages/django/template/loader_tags'
p1034
sg35
g13
(g14
g15
NtRp1035
(dp1036
g18
I1
sg19
I0
sg20
I178
sg21
I0
sg22
I0
sg23
I82
sg24
I0
sbssg38
S' \xd2\xc1\xec\x8d1:R\xe28p\xc2(\xc3\x95\x1e'
p1037
ssS'_Users_rick_envs_django-tags-input_lib_python2_7_site-packages_django_core_files_uploadhandler'
p1038
(dp1039
g29
(dp1040
g31
S'_Users_rick_envs_django-tags-input_lib_python2_7_site-packages_django_core_files_uploadhandler.html'
p1041
sg33
S'/Users/rick/envs/django-tags-input/lib/python2.7/site-packages/django/core/files/uploadhandler'
p1042
sg35
g13
(g14
g15
NtRp1043
(dp1044
g18
I1
sg19
I0
sg20
I89
sg21
I0
sg22
I0
sg23
I72
sg24
I0
sbssg38
S'\x13\xed\xf6\xb4\x83\x0e\x1d\t\x92\x10\xb29\xcfw`\xa8'
p1045
ssS'_Users_rick_envs_django-tags-input_lib_python2_7_site-packages_django_contrib_sites_management'
p1046
(dp1047
g29
(dp1048
g31
S'_Users_rick_envs_django-tags-input_lib_python2_7_site-packages_django_contrib_sites_management.html'
p1049
sg33
S'/Users/rick/envs/django-tags-input/lib/python2.7/site-packages/django/contrib/sites/management'
p1050
sg35
g13
(g14
g15
NtRp1051
(dp1052
g18
I1
sg19
I0
sg20
I20
sg21
I0
sg22
I0
sg23
I6
sg24
I0
sbssg38
S'\x7f\x8f\xcc,g\x17\xed\xc1V\xdb\xd7e3\xe5\xe6\xca'
p1053
ssS'_Users_rick_envs_django-tags-input_lib_python2_7_site-packages_django_core_management_base'
p1054
(dp1055
g29
(dp1056
g31
S'_Users_rick_envs_django-tags-input_lib_python2_7_site-packages_django_core_management_base.html'
p1057
sg33
S'/Users/rick/envs/django-tags-input/lib/python2.7/site-packages/django/core/management/base'
p1058
sg35
g13
(g14
g15
NtRp1059
(dp1060
g18
I1
sg19
I0
sg20
I139
sg21
I0
sg22
I0
sg23
I112
sg24
I0
sbssg38
S'\xb2J\x155\x11\xb3\x9d\xe1k\x0cz\xb0wkq+'
p1061
ssS'_Users_rick_envs_django-tags-input_lib_python2_7_site-packages_django_contrib_contenttypes_models'
p1062
(dp1063
g29
(dp1064
g31
S'_Users_rick_envs_django-tags-input_lib_python2_7_site-packages_django_contrib_contenttypes_models.html'
p1065
sg33
S'/Users/rick/envs/django-tags-input/lib/python2.7/site-packages/django/contrib/contenttypes/models'
p1066
sg35
g13
(g14
g15
NtRp1067
(dp1068
g18
I1
sg19
I0
sg20
I98
sg21
I0
sg22
I0
sg23
I79
sg24
I0
sbssg38
S'\xcf\xeax\x87\xdbO\xcftf\x83+O\x03&\xf9\xe4'
p1069
ssS'_Users_rick_envs_django-tags-input_lib_python2_7_site-packages_nose_pyversion'
p1070
(dp1071
g29
(dp1072
g31
S'_Users_rick_envs_django-tags-input_lib_python2_7_site-packages_nose_pyversion.html'
p1073
sg33
S'/Users/rick/envs/django-tags-input/lib/python2.7/site-packages/nose/pyversion'
p1074
sg35
g13
(g14
g15
NtRp1075
(dp1076
g18
I1
sg19
I0
sg20
I92
sg21
I0
sg22
I0
sg23
I82
sg24
I0
sbssg38
S'\x11\x05\x15\xa7C{\xbd\xa04\xc8\xc2/r_\x14S'
p1077
ssS'_Users_rick_envs_django-tags-input_lib_python2_7_site-packages_django_utils_crypto'
p1078
(dp1079
g29
(dp1080
g31
S'_Users_rick_envs_django-tags-input_lib_python2_7_site-packages_django_utils_crypto.html'
p1081
sg33
S'/Users/rick/envs/django-tags-input/lib/python2.7/site-packages/django/utils/crypto'
p1082
sg35
g13
(g14
g15
NtRp1083
(dp1084
g18
I1
sg19
I0
sg20
I78
sg21
I0
sg22
I0
sg23
I36
sg24
I0
sbssg38
S'p\x96\xcc\x07\x832\x89\x9aY\x15\xe7Q\x12\xf5p)'
p1085
ssS'_Users_rick_envs_django-tags-input_lib_python2_7_site-packages_django_utils_synch'
p1086
(dp1087
g29
(dp1088
g31
S'_Users_rick_envs_django-tags-input_lib_python2_7_site-packages_django_utils_synch.html'
p1089
sg33
S'/Users/rick/envs/django-tags-input/lib/python2.7/site-packages/django/utils/synch'
p1090
sg35
g13
(g14
g15
NtRp1091
(dp1092
g18
I1
sg19
I0
sg20
I59
sg21
I0
sg22
I0
sg23
I52
sg24
I0
sbssg38
S'\xdd\xb6\x8b\x95\x00O\x9a\xaa\xef\xfb\xa1\xb8V\xa7\x99\xb6'
p1093
ssS'django_middleware_common'
p1094
(dp1095
g6
(dp1096
g8
S'django_middleware_common.html'
p1097
sg10
S'django.middleware.common'
p1098
sg12
g13
(g14
g15
NtRp1099
(dp1100
g18
I1
sg19
I0
sg20
I82
sg21
I0
sg22
I0
sg23
I56
sg24
I0
sbssg25
S'\xfe%\xa8\xa8\xd4\x8a=\xd4\xc0\xf3\xc1\xe2\t\xe4\xec\x1c'
p1101
ssS'_Users_rick_envs_django-tags-input_lib_python2_7_site-packages_django_core_handlers_wsgi'
p1102
(dp1103
g29
(dp1104
g31
S'_Users_rick_envs_django-tags-input_lib_python2_7_site-packages_django_core_handlers_wsgi.html'
p1105
sg33
S'/Users/rick/envs/django-tags-input/lib/python2.7/site-packages/django/core/handlers/wsgi'
p1106
sg35
g13
(g14
g15
NtRp1107
(dp1108
g18
I1
sg19
I0
sg20
I150
sg21
I0
sg22
I0
sg23
I81
sg24
I0
sbssg38
S'\xfc\xa9o\xeey\xff\xc29\xe7G\xe4\n\x96\x11\x19\xa2'
p1109
ssS'_Users_rick_envs_django-tags-input_lib_python2_7_site-packages_django_db_models_sql_query'
p1110
(dp1111
g29
(dp1112
g31
S'_Users_rick_envs_django-tags-input_lib_python2_7_site-packages_django_db_models_sql_query.html'
p1113
sg33
S'/Users/rick/envs/django-tags-input/lib/python2.7/site-packages/django/db/models/sql/query'
p1114
sg35
g13
(g14
g15
NtRp1115
(dp1116
g18
I1
sg19
I0
sg20
I1050
sg21
I0
sg22
I0
sg23
I646
sg24
I0
sbssg38
S'Z\x7fG\xda]H\\M\xc9@\x88\xfb;\xa64\xc5'
p1117
ssS'_Users_rick_envs_django-tags-input_lib_python2_7_site-packages_django_contrib_auth_hashers'
p1118
(dp1119
g29
(dp1120
g31
S'_Users_rick_envs_django-tags-input_lib_python2_7_site-packages_django_contrib_auth_hashers.html'
p1121
sg33
S'/Users/rick/envs/django-tags-input/lib/python2.7/site-packages/django/contrib/auth/hashers'
p1122
sg35
g13
(g14
g15
NtRp1123
(dp1124
g18
I1
sg19
I0
sg20
I231
sg21
I0
sg22
I0
sg23
I177
sg24
I0
sbssg38
S'\x8d\xe6~K\xd4:H\xa8\x90\xb9\xf2\x0e\xf8\xd4L\x9b'
p1125
ssS'_Users_rick_envs_django-tags-input_lib_python2_7_site-packages_nose_tools_nontrivial'
p1126
(dp1127
g29
(dp1128
g31
S'_Users_rick_envs_django-tags-input_lib_python2_7_site-packages_nose_tools_nontrivial.html'
p1129
sg33
S'/Users/rick/envs/django-tags-input/lib/python2.7/site-packages/nose/tools/nontrivial'
p1130
sg35
g13
(g14
g15
NtRp1131
(dp1132
g18
I1
sg19
I0
sg20
I80
sg21
I0
sg22
I0
sg23
I57
sg24
I0
sbssg38
S"x'\xd7f\x03\x9d\x17\r\\\xda\x80\xe4\x8b\xca4\xd9"
p1133
ssS'_Users_rick_envs_django-tags-input_lib_python2_7_site-packages_django_db_models_fields_related'
p1134
(dp1135
g29
(dp1136
g31
S'_Users_rick_envs_django-tags-input_lib_python2_7_site-packages_django_db_models_fields_related.html'
p1137
sg33
S'/Users/rick/envs/django-tags-input/lib/python2.7/site-packages/django/db/models/fields/related'
p1138
sg35
g13
(g14
g15
NtRp1139
(dp1140
g18
I1
sg19
I0
sg20
I755
sg21
I0
sg22
I0
sg23
I438
sg24
I0
sbssg38
S'\xa9@q\xd2\xda\xd9T\x8e\xd0\x95\xa9z_\xa8\xed\x19'
p1141
ssS'_Users_rick_envs_django-tags-input_lib_python2_7_site-packages_django_template_debug'
p1142
(dp1143
g29
(dp1144
g31
S'_Users_rick_envs_django-tags-input_lib_python2_7_site-packages_django_template_debug.html'
p1145
sg33
S'/Users/rick/envs/django-tags-input/lib/python2.7/site-packages/django/template/debug'
p1146
sg35
g13
(g14
g15
NtRp1147
(dp1148
g18
I1
sg19
I0
sg20
I78
sg21
I0
sg22
I0
sg23
I19
sg24
I0
sbssg38
S'\xf2D\x13\xb2\x83[\x14w\xd3\xe6\x82Z1\xb1\xec\xde'
p1149
ssS'autocompletionexample_admin'
p1150
(dp1151
g29
(dp1152
g31
S'autocompletionexample_admin.html'
p1153
sg33
S'autocompletionexample/admin'
p1154
sg35
g13
(g14
g15
NtRp1155
(dp1156
g18
I1
sg19
I0
sg20
I19
sg21
I0
sg22
I0
sg23
I0
sg24
I0
sbssg38
S'y\xac\xc0\x07\x1e\x12\x97\xea5\xf1\r\xc8\xc1v5\xc2'
p1157
ssS'django_contrib_sessions_backends_base'
p1158
(dp1159
g6
(dp1160
g8
S'django_contrib_sessions_backends_base.html'
p1161
sg10
S'django.contrib.sessions.backends.base'
p1162
sg12
g13
(g14
g15
NtRp1163
(dp1164
g18
I1
sg19
I0
sg20
I178
sg21
I0
sg22
I0
sg23
I66
sg24
I0
sbssg25
S'\x953\x1eI\t\xa9q\xb2=\xe4\xe2\xde\x8d\xc3\xbff'
p1165
ssS'_Users_rick_envs_django-tags-input_lib_python2_7_site-packages_django_http_multipartparser'
p1166
(dp1167
g29
(dp1168
g31
S'_Users_rick_envs_django-tags-input_lib_python2_7_site-packages_django_http_multipartparser.html'
p1169
sg33
S'/Users/rick/envs/django-tags-input/lib/python2.7/site-packages/django/http/multipartparser'
p1170
sg35
g13
(g14
g15
NtRp1171
(dp1172
g18
I1
sg19
I0
sg20
I348
sg21
I0
sg22
I0
sg23
I139
sg24
I0
sbssg38
S'\x99Nuf\x97 k\x08\xb8\xeb3\x1d@\xf7S\x06'
p1173
ssS'_Users_rick_envs_django-tags-input_lib_python2_7_site-packages_django_contrib_admin_helpers'
p1174
(dp1175
g29
(dp1176
g31
S'_Users_rick_envs_django-tags-input_lib_python2_7_site-packages_django_contrib_admin_helpers.html'
p1177
sg33
S'/Users/rick/envs/django-tags-input/lib/python2.7/site-packages/django/contrib/admin/helpers'
p1178
sg35
g13
(g14
g15
NtRp1179
(dp1180
g18
I1
sg19
I0
sg20
I244
sg21
I0
sg22
I0
sg23
I188
sg24
I0
sbssg38
S"W\xb1\xfeI\x7f$|\x92J\xfb\xb9tX\xdb'v"
p1181
ssS'_Users_rick_envs_django-tags-input_lib_python2_7_site-packages_django_contrib_sessions_middleware'
p1182
(dp1183
g29
(dp1184
g31
S'_Users_rick_envs_django-tags-input_lib_python2_7_site-packages_django_contrib_sessions_middleware.html'
p1185
sg33
S'/Users/rick/envs/django-tags-input/lib/python2.7/site-packages/django/contrib/sessions/middleware'
p1186
sg35
g13
(g14
g15
NtRp1187
(dp1188
g18
I1
sg19
I0
sg20
I29
sg21
I0
sg22
I0
sg23
I11
sg24
I0
sbssg38
S'\x15\x8f\x15\xda\xcdi\xa05\x90}\x9f\xd6\xa6\xef\xfaN'
p1189
ssS'_Users_rick_envs_django-tags-input_lib_python2_7_site-packages_django_utils_http'
p1190
(dp1191
g29
(dp1192
g31
S'_Users_rick_envs_django-tags-input_lib_python2_7_site-packages_django_utils_http.html'
p1193
sg33
S'/Users/rick/envs/django-tags-input/lib/python2.7/site-packages/django/utils/http'
p1194
sg35
g13
(g14
g15
NtRp1195
(dp1196
g18
I1
sg19
I0
sg20
I122
sg21
I0
sg22
I0
sg23
I113
sg24
I0
sbssg38
S'\xd0D\xe5\x874J\x93\x96q\xba\x1fY\xd3N\x1e\x18'
p1197
ssS'_Users_rick_envs_django-tags-input_lib_python2_7_site-packages_django_db_backends_sqlite3_introspection'
p1198
(dp1199
g29
(dp1200
g31
S'_Users_rick_envs_django-tags-input_lib_python2_7_site-packages_django_db_backends_sqlite3_introspection.html'
p1201
sg33
S'/Users/rick/envs/django-tags-input/lib/python2.7/site-packages/django/db/backends/sqlite3/introspection'
p1202
sg35
g13
(g14
g15
NtRp1203
(dp1204
g18
I1
sg19
I0
sg20
I92
sg21
I0
sg22
I0
sg23
I90
sg24
I0
sbssg38
S'\x03u\x82\x8a\x85\xfc\xd8\xb3\x89\xd0\xd6\x9f\x0f\xdb\xe7\x82'
p1205
ssS'_Users_rick_envs_django-tags-input_lib_python2_7_site-packages_django_contrib_messages_storage___init__'
p1206
(dp1207
g29
(dp1208
g31
S'_Users_rick_envs_django-tags-input_lib_python2_7_site-packages_django_contrib_messages_storage___init__.html'
p1209
sg33
S'/Users/rick/envs/django-tags-input/lib/python2.7/site-packages/django/contrib/messages/storage/__init__'
p1210
sg35
g13
(g14
g15
NtRp1211
(dp1212
g18
I1
sg19
I0
sg20
I18
sg21
I0
sg22
I0
sg23
I10
sg24
I0
sbssg38
S'\n\xafr\xf4\xf8\x8b\xde\x83\xd1TB*\x1c,\xfb)'
p1213
ssS'_Users_rick_envs_django-tags-input_lib_python2_7_site-packages_django_core_serializers_xml_serializer'
p1214
(dp1215
g29
(dp1216
g31
S'_Users_rick_envs_django-tags-input_lib_python2_7_site-packages_django_core_serializers_xml_serializer.html'
p1217
sg33
S'/Users/rick/envs/django-tags-input/lib/python2.7/site-packages/django/core/serializers/xml_serializer'
p1218
sg35
g13
(g14
g15
NtRp1219
(dp1220
g18
I1
sg19
I0
sg20
I209
sg21
I0
sg22
I0
sg23
I163
sg24
I0
sbssg38
S'D\x84+U\xaa{aF\x82\x85j,\x93x\xce\xa8'
p1221
ssS'django_contrib_sessions_backends'
p1222
(dp1223
g6
(dp1224
g8
S'django_contrib_sessions_backends.html'
p1225
sg10
S'django.contrib.sessions.backends'
p1226
sg12
g13
(g14
g15
NtRp1227
(dp1228
g18
I1
sg19
I0
sg20
I0
sg21
I0
sg22
I0
sg23
I0
sg24
I0
sbssg25
S'\xb0\xc8pN\xaf>\xa0\xbaz\x144\xe0A9\xb8?'
p1229
ssS'_Users_rick_envs_django-tags-input_lib_python2_7_site-packages_django_utils_translation_trans_real'
p1230
(dp1231
g29
(dp1232
g31
S'_Users_rick_envs_django-tags-input_lib_python2_7_site-packages_django_utils_translation_trans_real.html'
p1233
sg33
S'/Users/rick/envs/django-tags-input/lib/python2.7/site-packages/django/utils/translation/trans_real'
p1234
sg35
g13
(g14
g15
NtRp1235
(dp1236
g18
I1
sg19
I0
sg20
I366
sg21
I0
sg22
I0
sg23
I341
sg24
I0
sbssg38
S'\x9d\xb1\xf1\xdd\x13\xf0\xe9\xfazP\x84\xee\xf1EX\xa2'
p1237
ssS'tags_input_admin'
p1238
(dp1239
g6
(dp1240
g8
S'tags_input_admin.html'
p1241
sg10
S'tags_input.admin'
p1242
sg12
g13
(g14
g15
NtRp1243
(dp1244
g18
I1
sg19
I0
sg20
I17
sg21
I0
sg22
I0
sg23
I2
sg24
I0
sbssg25
S'\x10\xb1\xe4\x8d\xf9\xf6mhQ:A\xba\xd6\x88u\t'
p1245
ssS'_Users_rick_envs_django-tags-input_lib_python2_7_site-packages_django_db_models_sql_where'
p1246
(dp1247
g29
(dp1248
g31
S'_Users_rick_envs_django-tags-input_lib_python2_7_site-packages_django_db_models_sql_where.html'
p1249
sg33
S'/Users/rick/envs/django-tags-input/lib/python2.7/site-packages/django/db/models/sql/where'
p1250
sg35
g13
(g14
g15
NtRp1251
(dp1252
g18
I1
sg19
I0
sg20
I201
sg21
I0
sg22
I0
sg23
I114
sg24
I0
sbssg38
S']\xe5\xe5m\xee\x07\x01Ko\x1a\x9c\x89U"\x03\xde'
p1253
ssS'_Users_rick_workspace_django-tags-input_tags_input_views'
p1254
(dp1255
g29
(dp1256
g31
S'_Users_rick_workspace_django-tags-input_tags_input_views.html'
p1257
sg33
S'/Users/rick/workspace/django-tags-input/tags_input/views'
p1258
sg35
g13
(g14
g15
NtRp1259
(dp1260
g18
I1
sg19
I0
sg20
I24
sg21
I0
sg22
I0
sg23
I0
sg24
I0
sbssg38
S'mP=S\xb5\xf5!B\xce\t\x94I\x9cd\xac\x8d'
p1261
ssS'_Users_rick_envs_django-tags-input_lib_python2_7_site-packages_django_utils_datastructures'
p1262
(dp1263
g29
(dp1264
g31
S'_Users_rick_envs_django-tags-input_lib_python2_7_site-packages_django_utils_datastructures.html'
p1265
sg33
S'/Users/rick/envs/django-tags-input/lib/python2.7/site-packages/django/utils/datastructures'
p1266
sg35
g13
(g14
g15
NtRp1267
(dp1268
g18
I1
sg19
I0
sg20
I303
sg21
I0
sg22
I0
sg23
I231
sg24
I0
sbssg38
S'\x89a\x01\xa5\na0k\xe4\xb3\xcc\xbaD\xcdd\xb5'
p1269
ssS'_Users_rick_envs_django-tags-input_lib_python2_7_site-packages_django_utils_html'
p1270
(dp1271
g29
(dp1272
g31
S'_Users_rick_envs_django-tags-input_lib_python2_7_site-packages_django_utils_html.html'
p1273
sg33
S'/Users/rick/envs/django-tags-input/lib/python2.7/site-packages/django/utils/html'
p1274
sg35
g13
(g14
g15
NtRp1275
(dp1276
g18
I1
sg19
I0
sg20
I150
sg21
I0
sg22
I0
sg23
I141
sg24
I0
sbssg38
S'\x99\xee?y\xac\x85\xcf\x81W\xc5\xfd\xadf2\x03\xc6'
p1277
ssS'_Users_rick_envs_django-tags-input_lib_python2_7_site-packages_django_core_validators'
p1278
(dp1279
g29
(dp1280
g31
S'_Users_rick_envs_django-tags-input_lib_python2_7_site-packages_django_core_validators.html'
p1281
sg33
S'/Users/rick/envs/django-tags-input/lib/python2.7/site-packages/django/core/validators'
p1282
sg35
g13
(g14
g15
NtRp1283
(dp1284
g18
I1
sg19
I0
sg20
I120
sg21
I0
sg22
I0
sg23
I114
sg24
I0
sbssg38
S'\xd2\xc1\x0c!{\xeb7\x91\xdc\\\x8cQ\x1f$(\xe8'
p1285
ssS'tags_input'
p1286
(dp1287
S'index'
p1288
(dp1289
S'html_filename'
p1290
S'tags_input.html'
p1291
sS'name'
p1292
g1286
sS'nums'
p1293
g13
(g14
g15
NtRp1294
(dp1295
g18
I1
sg19
I0
sg20
I0
sg21
I0
sg22
I0
sg23
I0
sg24
I0
sbssS'hash'
p1296
S'\xe5P\x11)^\xf4>1D.\x0e\x0b\xa1\xf8[+'
p1297
ssS'_Users_rick_envs_django-tags-input_lib_python2_7_site-packages_django_nose_runner'
p1298
(dp1299
g29
(dp1300
g31
S'_Users_rick_envs_django-tags-input_lib_python2_7_site-packages_django_nose_runner.html'
p1301
sg33
S'/Users/rick/envs/django-tags-input/lib/python2.7/site-packages/django_nose/runner'
p1302
sg35
g13
(g14
g15
NtRp1303
(dp1304
g18
I1
sg19
I0
sg20
I159
sg21
I0
sg22
I0
sg23
I139
sg24
I0
sbssg38
S'\x84\x87\xe7\xd1>6\x189CJ\xc5\x90Y[\xcaZ'
p1305
ssS'_Users_rick_envs_django-tags-input_lib_python2_7_site-packages_django_contrib_staticfiles_models'
p1306
(dp1307
g29
(dp1308
g31
S'_Users_rick_envs_django-tags-input_lib_python2_7_site-packages_django_contrib_staticfiles_models.html'
p1309
sg33
S'/Users/rick/envs/django-tags-input/lib/python2.7/site-packages/django/contrib/staticfiles/models'
p1310
sg35
g13
(g14
g15
NtRp1311
(dp1312
g18
I1
sg19
I0
sg20
I0
sg21
I0
sg22
I0
sg23
I0
sg24
I0
sbssg38
S'\xb0\xc8pN\xaf>\xa0\xbaz\x144\xe0A9\xb8?'
p1313
ssS'_Users_rick_envs_django-tags-input_lib_python2_7_site-packages_nose_loader'
p1314
(dp1315
g29
(dp1316
g31
S'_Users_rick_envs_django-tags-input_lib_python2_7_site-packages_nose_loader.html'
p1317
sg33
S'/Users/rick/envs/django-tags-input/lib/python2.7/site-packages/nose/loader'
p1318
sg35
g13
(g14
g15
NtRp1319
(dp1320
g18
I1
sg19
I0
sg20
I351
sg21
I0
sg22
I0
sg23
I217
sg24
I0
sbssg38
S'W\xac\x9a\x9an\x03;Q\xe7\n\xaf\xaa\x0b\x03\n\x97'
p1321
ssS'django_templatetags_l10n'
p1322
(dp1323
g6
(dp1324
g8
S'django_templatetags_l10n.html'
p1325
sg10
S'django.templatetags.l10n'
p1326
sg12
g13
(g14
g15
NtRp1327
(dp1328
g18
I1
sg19
I0
sg20
I32
sg21
I0
sg22
I0
sg23
I20
sg24
I0
sbssg25
S'A\xe5-\xda\xd3\xdb}\xe1\xbd\xa5D\x1b\x1a$r\xdc'
p1329
ssS'_Users_rick_envs_django-tags-input_lib_python2_7_site-packages_django_contrib_staticfiles_management___init__'
p1330
(dp1331
g29
(dp1332
g31
S'_Users_rick_envs_django-tags-input_lib_python2_7_site-packages_django_contrib_staticfiles_management___init__.html'
p1333
sg33
S'/Users/rick/envs/django-tags-input/lib/python2.7/site-packages/django/contrib/staticfiles/management/__init__'
p1334
sg35
g13
(g14
g15
NtRp1335
(dp1336
g18
I1
sg19
I0
sg20
I0
sg21
I0
sg22
I0
sg23
I0
sg24
I0
sbssg38
S'\xb0\xc8pN\xaf>\xa0\xbaz\x144\xe0A9\xb8?'
p1337
ssS'_Users_rick_envs_django-tags-input_lib_python2_7_site-packages_django_contrib_admin_options'
p1338
(dp1339
g29
(dp1340
g31
S'_Users_rick_envs_django-tags-input_lib_python2_7_site-packages_django_contrib_admin_options.html'
p1341
sg33
S'/Users/rick/envs/django-tags-input/lib/python2.7/site-packages/django/contrib/admin/options'
p1342
sg35
g13
(g14
g15
NtRp1343
(dp1344
g18
I1
sg19
I0
sg20
I763
sg21
I0
sg22
I0
sg23
I614
sg24
I0
sbssg38
S'\xf8\x87\xb0\xd4\xb2\xf5\xec\xb9\x92H\x8fp\xaciE\x9f'
p1345
ssS'_Users_rick_envs_django-tags-input_lib_python2_7_site-packages_django_forms_fields'
p1346
(dp1347
g29
(dp1348
g31
S'_Users_rick_envs_django-tags-input_lib_python2_7_site-packages_django_forms_fields.html'
p1349
sg33
S'/Users/rick/envs/django-tags-input/lib/python2.7/site-packages/django/forms/fields'
p1350
sg35
g13
(g14
g15
NtRp1351
(dp1352
g18
I1
sg19
I0
sg20
I588
sg21
I0
sg22
I0
sg23
I534
sg24
I0
sbssg38
S';}Q\x8bG\x08w\xa3\xee\x18H\xf1\x8a\xb2M\x00'
p1353
ssS'_Users_rick_envs_django-tags-input_lib_python2_7_site-packages_django_dispatch_saferef'
p1354
(dp1355
g29
(dp1356
g31
S'_Users_rick_envs_django-tags-input_lib_python2_7_site-packages_django_dispatch_saferef.html'
p1357
sg33
S'/Users/rick/envs/django-tags-input/lib/python2.7/site-packages/django/dispatch/saferef'
p1358
sg35
g13
(g14
g15
NtRp1359
(dp1360
g18
I1
sg19
I0
sg20
I84
sg21
I0
sg22
I0
sg23
I58
sg24
I0
sbssg38
S'\x8f\x99\x01\xb2\xe1\xa8,&\xfb\xf6\xf4\xf8\x06[#\x96'
p1361
ssS'_Users_rick_envs_django-tags-input_lib_python2_7_site-packages_django_test_testcases'
p1362
(dp1363
g29
(dp1364
g31
S'_Users_rick_envs_django-tags-input_lib_python2_7_site-packages_django_test_testcases.html'
p1365
sg33
S'/Users/rick/envs/django-tags-input/lib/python2.7/site-packages/django/test/testcases'
p1366
sg35
g13
(g14
g15
NtRp1367
(dp1368
g18
I1
sg19
I0
sg20
I609
sg21
I0
sg22
I0
sg23
I559
sg24
I0
sbssg38
S'K^\x95\x98\x90\xfc\x82I\xdd=\xf1\xff\x10$\x83\x9b'
p1369
ssS'_Users_rick_envs_django-tags-input_lib_python2_7_site-packages_django_contrib_auth_backends'
p1370
(dp1371
g29
(dp1372
g31
S'_Users_rick_envs_django-tags-input_lib_python2_7_site-packages_django_contrib_auth_backends.html'
p1373
sg33
S'/Users/rick/envs/django-tags-input/lib/python2.7/site-packages/django/contrib/auth/backends'
p1374
sg35
g13
(g14
g15
NtRp1375
(dp1376
g18
I1
sg19
I0
sg20
I71
sg21
I0
sg22
I0
sg23
I47
sg24
I0
sbssg38
S'/\x0b\xec\xc0\x03>K\x84?\x14aw\\\xc3\x9f\xf5'
p1377
ssS'_Users_rick_envs_django-tags-input_lib_python2_7_site-packages_django_core_cache_backends_locmem'
p1378
(dp1379
g29
(dp1380
g31
S'_Users_rick_envs_django-tags-input_lib_python2_7_site-packages_django_core_cache_backends_locmem.html'
p1381
sg33
S'/Users/rick/envs/django-tags-input/lib/python2.7/site-packages/django/core/cache/backends/locmem'
p1382
sg35
g13
(g14
g15
NtRp1383
(dp1384
g18
I1
sg19
I0
sg20
I119
sg21
I0
sg22
I0
sg23
I115
sg24
I0
sbssg38
S'\xdbnsUt\xd1\xf9\xdb\x04Ei5\x01+\xb0H'
p1385
ssS'django_conf_urls'
p1386
(dp1387
g6
(dp1388
g8
S'django_conf_urls.html'
p1389
sg10
S'django.conf.urls'
p1390
sg12
g13
(g14
g15
NtRp1391
(dp1392
g18
I1
sg19
I0
sg20
I41
sg21
I0
sg22
I0
sg23
I4
sg24
I0
sbssg25
S'~\xf4\xeaz\xf19\xd8Qm<1\xbc\x91\x96\x89\xb8'
p1393
ssS'django_contrib_staticfiles_models'
p1394
(dp1395
g6
(dp1396
g8
S'django_contrib_staticfiles_models.html'
p1397
sg10
S'django.contrib.staticfiles.models'
p1398
sg12
g13
(g14
g15
NtRp1399
(dp1400
g18
I1
sg19
I0
sg20
I0
sg21
I0
sg22
I0
sg23
I0
sg24
I0
sbssg25
S'\xb0\xc8pN\xaf>\xa0\xbaz\x144\xe0A9\xb8?'
p1401
ssS'_Users_rick_envs_django-tags-input_lib_python2_7_site-packages_django_core_serializers_json'
p1402
(dp1403
g29
(dp1404
g31
S'_Users_rick_envs_django-tags-input_lib_python2_7_site-packages_django_core_serializers_json.html'
p1405
sg33
S'/Users/rick/envs/django-tags-input/lib/python2.7/site-packages/django/core/serializers/json'
p1406
sg35
g13
(g14
g15
NtRp1407
(dp1408
g18
I1
sg19
I0
sg20
I72
sg21
I0
sg22
I0
sg23
I53
sg24
I0
sbssg38
S'\xad)W\xfe\x175\xcb\x97\x8c\xca\x7fW\xde.3\x9d'
p1409
ssS'_Users_rick_envs_django-tags-input_lib_python2_7_site-packages_django_template_context'
p1410
(dp1411
g29
(dp1412
g31
S'_Users_rick_envs_django-tags-input_lib_python2_7_site-packages_django_template_context.html'
p1413
sg33
S'/Users/rick/envs/django-tags-input/lib/python2.7/site-packages/django/template/context'
p1414
sg35
g13
(g14
g15
NtRp1415
(dp1416
g18
I1
sg19
I0
sg20
I114
sg21
I0
sg22
I0
sg23
I49
sg24
I0
sbssg38
S'!\x1e\x17c\xde\xa2\x97/\xe7i\xada5\xf7\x00\xe8'
p1417
ssS'_Users_rick_envs_django-tags-input_lib_python2_7_site-packages_django_template_loaders_app_directories'
p1418
(dp1419
g29
(dp1420
g31
S'_Users_rick_envs_django-tags-input_lib_python2_7_site-packages_django_template_loaders_app_directories.html'
p1421
sg33
S'/Users/rick/envs/django-tags-input/lib/python2.7/site-packages/django/template/loaders/app_directories'
p1422
sg35
g13
(g14
g15
NtRp1423
(dp1424
g18
I1
sg19
I0
sg20
I43
sg21
I0
sg22
I0
sg23
I4
sg24
I0
sbssg38
S'\x91\\\xdaG\xba\r\xa2\x06t\x87\xf8\xbe\r\xd7X\xcd'
p1425
ssS'_Users_rick_envs_django-tags-input_lib_python2_7_site-packages_django_test_simple'
p1426
(dp1427
g29
(dp1428
g31
S'_Users_rick_envs_django-tags-input_lib_python2_7_site-packages_django_test_simple.html'
p1429
sg33
S'/Users/rick/envs/django-tags-input/lib/python2.7/site-packages/django/test/simple'
p1430
sg35
g13
(g14
g15
NtRp1431
(dp1432
g18
I1
sg19
I0
sg20
I192
sg21
I0
sg22
I0
sg23
I143
sg24
I0
sbssg38
S'C\x00yQo\x97\xc2\x92\x1f\xa6o\xf6\x1c8\x83i'
p1433
ssS'django_templatetags_i18n'
p1434
(dp1435
g6
(dp1436
g8
S'django_templatetags_i18n.html'
p1437
sg10
S'django.templatetags.i18n'
p1438
sg12
g13
(g14
g15
NtRp1439
(dp1440
g18
I1
sg19
I0
sg20
I234
sg21
I0
sg22
I0
sg23
I124
sg24
I0
sbssg25
S'\x07\xcf\xed\xe91n\xd8\xd2\xa1\x92\xf8\xc90\xcf\xafx'
p1441
ssS'django_contrib_sessions_management'
p1442
(dp1443
g6
(dp1444
g8
S'django_contrib_sessions_management.html'
p1445
sg10
S'django.contrib.sessions.management'
p1446
sg12
g13
(g14
g15
NtRp1447
(dp1448
g18
I1
sg19
I0
sg20
I0
sg21
I0
sg22
I0
sg23
I0
sg24
I0
sbssg25
S'\xb0\xc8pN\xaf>\xa0\xbaz\x144\xe0A9\xb8?'
p1449
ssS'tags_input_utils'
p1450
(dp1451
g6
(dp1452
g8
S'tags_input_utils.html'
p1453
sg10
S'tags_input.utils'
p1454
sg12
g13
(g14
g15
NtRp1455
(dp1456
g18
I1
sg19
I0
sg20
I45
sg21
I0
sg22
I0
sg23
I0
sg24
I0
sbssg25
S'=hn\xe2!\xeaQ\xe2?k\xa0\x92\xcas`\xf0'
p1457
ssS'_Users_rick_envs_django-tags-input_lib_python2_7_site-packages_django_http_request'
p1458
(dp1459
g29
(dp1460
g31
S'_Users_rick_envs_django-tags-input_lib_python2_7_site-packages_django_http_request.html'
p1461
sg33
S'/Users/rick/envs/django-tags-input/lib/python2.7/site-packages/django/http/request'
p1462
sg35
g13
(g14
g15
NtRp1463
(dp1464
g18
I1
sg19
I0
sg20
I280
sg21
I0
sg22
I0
sg23
I197
sg24
I0
sbssg38
S'\xb9\x9a)\xf2\x1d\xf7p\x83\x00~B9\x13\xce\xdeb'
p1465
ssS'_Users_rick_envs_django-tags-input_lib_python2_7_site-packages_django_core_cache_backends_db'
p1466
(dp1467
g29
(dp1468
g31
S'_Users_rick_envs_django-tags-input_lib_python2_7_site-packages_django_core_cache_backends_db.html'
p1469
sg33
S'/Users/rick/envs/django-tags-input/lib/python2.7/site-packages/django/core/cache/backends/db'
p1470
sg35
g13
(g14
g15
NtRp1471
(dp1472
g18
I1
sg19
I0
sg20
I128
sg21
I0
sg22
I0
sg23
I103
sg24
I0
sbssg38
S'\x18Sqc@\x84\x05\x07\xfd"h\x9e\xf4\xb3\xbfp'
p1473
ssS'_Users_rick_envs_django-tags-input_lib_python2_7_site-packages_django_conf___init__'
p1474
(dp1475
g29
(dp1476
g31
S'_Users_rick_envs_django-tags-input_lib_python2_7_site-packages_django_conf___init__.html'
p1477
sg33
S'/Users/rick/envs/django-tags-input/lib/python2.7/site-packages/django/conf/__init__'
p1478
sg35
g13
(g14
g15
NtRp1479
(dp1480
g18
I1
sg19
I0
sg20
I112
sg21
I0
sg22
I0
sg23
I101
sg24
I0
sbssg38
S'\xe8\xec\xa1t\x92\x80\xdf\x8f\x14#\xb5\xa14\xe5IH'
p1481
ssS'getpass'
p1482
(dp1483
g6
(dp1484
g8
S'getpass.html'
p1485
sg10
g1482
sg12
g13
(g14
g15
NtRp1486
(dp1487
g18
I1
sg19
I0
sg20
I103
sg21
I0
sg22
I0
sg23
I103
sg24
I0
sbssg25
S'b+6\x85\xbeqG\xcc\xef~2\xef\x94\x1cr<'
p1488
ssS'_Users_rick_envs_django-tags-input_lib_python2_7_site-packages_django_contrib_auth___init__'
p1489
(dp1490
g29
(dp1491
g31
S'_Users_rick_envs_django-tags-input_lib_python2_7_site-packages_django_contrib_auth___init__.html'
p1492
sg33
S'/Users/rick/envs/django-tags-input/lib/python2.7/site-packages/django/contrib/auth/__init__'
p1493
sg35
g13
(g14
g15
NtRp1494
(dp1495
g18
I1
sg19
I0
sg20
I91
sg21
I0
sg22
I0
sg23
I50
sg24
I0
sbssg38
S'\xa3\x10\x0f\xa19\xe7\x91\x17\xa4\xa5C\xd4A\xb1v,'
p1496
ssS'django_core_context_processors'
p1497
(dp1498
g6
(dp1499
g8
S'django_core_context_processors.html'
p1500
sg10
S'django.core.context_processors'
p1501
sg12
g13
(g14
g15
NtRp1502
(dp1503
g18
I1
sg19
I0
sg20
I37
sg21
I0
sg22
I0
sg23
I5
sg24
I0
sbssg25
S'K\x0e\xa0\x81\xe5\xf6\xcac\xfeA}a|]\x19\x08'
p1504
ssS'_Users_rick_envs_django-tags-input_lib_python2_7_site-packages_django_template_response'
p1505
(dp1506
g29
(dp1507
g31
S'_Users_rick_envs_django-tags-input_lib_python2_7_site-packages_django_template_response.html'
p1508
sg33
S'/Users/rick/envs/django-tags-input/lib/python2.7/site-packages/django/template/response'
p1509
sg35
g13
(g14
g15
NtRp1510
(dp1511
g18
I1
sg19
I0
sg20
I72
sg21
I0
sg22
I0
sg23
I44
sg24
I0
sbssg38
S'\x1fDF\xacz\x1d`;wma\xd3:\xe9D-'
p1512
ssS'django_core_management_commands_syncdb'
p1513
(dp1514
g6
(dp1515
g8
S'django_core_management_commands_syncdb.html'
p1516
sg10
S'django.core.management.commands.syncdb'
p1517
sg12
g13
(g14
g15
NtRp1518
(dp1519
g18
I1
sg19
I0
sg20
I99
sg21
I0
sg22
I0
sg23
I24
sg24
I0
sbssg25
S'\xad\xfc[\x81\x91G(j\xc6GKl\xb5D\xec4'
p1520
ssS'_Users_rick_envs_django-tags-input_lib_python2_7_site-packages_django_views_decorators_debug'
p1521
(dp1522
g29
(dp1523
g31
S'_Users_rick_envs_django-tags-input_lib_python2_7_site-packages_django_views_decorators_debug.html'
p1524
sg33
S'/Users/rick/envs/django-tags-input/lib/python2.7/site-packages/django/views/decorators/debug'
p1525
sg35
g13
(g14
g15
NtRp1526
(dp1527
g18
I1
sg19
I0
sg20
I19
sg21
I0
sg22
I0
sg23
I12
sg24
I0
sbssg38
S'\x8c\xd5\x86&\xdc\x98]\x15\xfe\xe61\xf6P\xc43Q'
p1528
ssS'django_contrib_sites_management'
p1529
(dp1530
g6
(dp1531
g8
S'django_contrib_sites_management.html'
p1532
sg10
S'django.contrib.sites.management'
p1533
sg12
g13
(g14
g15
NtRp1534
(dp1535
g18
I1
sg19
I0
sg20
I20
sg21
I0
sg22
I0
sg23
I6
sg24
I0
sbssg25
S'\x7f\x8f\xcc,g\x17\xed\xc1V\xdb\xd7e3\xe5\xe6\xca'
p1536
ssS'django_core_serializers_json'
p1537
(dp1538
g6
(dp1539
g8
S'django_core_serializers_json.html'
p1540
sg10
S'django.core.serializers.json'
p1541
sg12
g13
(g14
g15
NtRp1542
(dp1543
g18
I1
sg19
I0
sg20
I72
sg21
I0
sg22
I0
sg23
I53
sg24
I0
sbssg25
S'\xad)W\xfe\x175\xcb\x97\x8c\xca\x7fW\xde.3\x9d'
p1544
ssS'django_contrib_sessions_middleware'
p1545
(dp1546
g6
(dp1547
g8
S'django_contrib_sessions_middleware.html'
p1548
sg10
S'django.contrib.sessions.middleware'
p1549
sg12
g13
(g14
g15
NtRp1550
(dp1551
g18
I1
sg19
I0
sg20
I29
sg21
I0
sg22
I0
sg23
I11
sg24
I0
sbssg25
S'\x15\x8f\x15\xda\xcdi\xa05\x90}\x9f\xd6\xa6\xef\xfaN'
p1552
ssS'_Users_rick_envs_django-tags-input_lib_python2_7_site-packages_django_db___init__'
p1553
(dp1554
g29
(dp1555
g31
S'_Users_rick_envs_django-tags-input_lib_python2_7_site-packages_django_db___init__.html'
p1556
sg33
S'/Users/rick/envs/django-tags-input/lib/python2.7/site-packages/django/db/__init__'
p1557
sg35
g13
(g14
g15
NtRp1558
(dp1559
g18
I1
sg19
I0
sg20
I34
sg21
I0
sg22
I0
sg23
I31
sg24
I0
sbssg38
S'\x19\xc4\x8e\xa0\xe1\x1e\xbf\xe4\xcdR\xbc\xceF\xae\x00+'
p1560
ssS'_Users_rick_envs_django-tags-input_lib_python2_7_site-packages_nose_plugins_logcapture'
p1561
(dp1562
g29
(dp1563
g31
S'_Users_rick_envs_django-tags-input_lib_python2_7_site-packages_nose_plugins_logcapture.html'
p1564
sg33
S'/Users/rick/envs/django-tags-input/lib/python2.7/site-packages/nose/plugins/logcapture'
p1565
sg35
g13
(g14
g15
NtRp1566
(dp1567
g18
I1
sg19
I0
sg20
I125
sg21
I0
sg22
I0
sg23
I114
sg24
I0
sbssg38
S'c\xb2\x9f&\xf2\x07\xbeY\xa6\x9a\x0eo\xdax\xda\xe7'
p1568
ssS'_Users_rick_envs_django-tags-input_lib_python2_7_site-packages_django_db_models_fields___init__'
p1569
(dp1570
g29
(dp1571
g31
S'_Users_rick_envs_django-tags-input_lib_python2_7_site-packages_django_db_models_fields___init__.html'
p1572
sg33
S'/Users/rick/envs/django-tags-input/lib/python2.7/site-packages/django/db/models/fields/__init__'
p1573
sg35
g13
(g14
g15
NtRp1574
(dp1575
g18
I1
sg19
I0
sg20
I794
sg21
I0
sg22
I0
sg23
I624
sg24
I0
sbssg38
S'\x88\xa8r}\x07\xc0\xbf\xd1\r\xbf\xd2\x07:\x8e#\xf2'
p1576
ssS'_Users_rick_envs_django-tags-input_lib_python2_7_site-packages_django_core_management_sql'
p1577
(dp1578
g29
(dp1579
g31
S'_Users_rick_envs_django-tags-input_lib_python2_7_site-packages_django_core_management_sql.html'
p1580
sg33
S'/Users/rick/envs/django-tags-input/lib/python2.7/site-packages/django/core/management/sql'
p1581
sg35
g13
(g14
g15
NtRp1582
(dp1583
g18
I1
sg19
I0
sg20
I115
sg21
I0
sg22
I0
sg23
I77
sg24
I0
sbssg38
S'\x1b\xea\x0eMq\xfe\xd2\x02z\xe7\x0c\xd0cV\xb7.'
p1584
ssS'django_core_management_commands_flush'
p1585
(dp1586
g6
(dp1587
g8
S'django_core_management_commands_flush.html'
p1588
sg10
S'django.core.management.commands.flush'
p1589
sg12
g13
(g14
g15
NtRp1590
(dp1591
g18
I1
sg19
I0
sg20
I46
sg21
I0
sg22
I0
sg23
I5
sg24
I0
sbssg25
S'#^\x89\\H\xd4\x86\x86\xb6\x7f}\xe7\xee\x8akq'
p1592
ssS'_Users_rick_envs_django-tags-input_lib_python2_7_site-packages_django_utils_dateparse'
p1593
(dp1594
g29
(dp1595
g31
S'_Users_rick_envs_django-tags-input_lib_python2_7_site-packages_django_utils_dateparse.html'
p1596
sg33
S'/Users/rick/envs/django-tags-input/lib/python2.7/site-packages/django/utils/dateparse'
p1597
sg35
g13
(g14
g15
NtRp1598
(dp1599
g18
I1
sg19
I0
sg20
I38
sg21
I0
sg22
I0
sg23
I27
sg24
I0
sbssg38
S'\t\xf1\x17\x93qX\x8c\x97c!\xeaf\x8eX\x06*'
p1600
ssS'_Users_rick_envs_django-tags-input_lib_python2_7_site-packages_django_contrib_auth_views'
p1601
(dp1602
g29
(dp1603
g31
S'_Users_rick_envs_django-tags-input_lib_python2_7_site-packages_django_contrib_auth_views.html'
p1604
sg33
S'/Users/rick/envs/django-tags-input/lib/python2.7/site-packages/django/contrib/auth/views'
p1605
sg35
g13
(g14
g15
NtRp1606
(dp1607
g18
I1
sg19
I0
sg20
I141
sg21
I0
sg22
I0
sg23
I102
sg24
I0
sbssg38
S'\xab\x9f\xe6\xef\x9d\x9f\xaf<\x82-\xeb\xdd0!\x137'
p1608
ssS'django_contrib_messages_middleware'
p1609
(dp1610
g6
(dp1611
g8
S'django_contrib_messages_middleware.html'
p1612
sg10
S'django.contrib.messages.middleware'
p1613
sg12
g13
(g14
g15
NtRp1614
(dp1615
g18
I1
sg19
I0
sg20
I11
sg21
I0
sg22
I0
sg23
I1
sg24
I0
sbssg25
S'Ck\x91\x91\x8c\xffq\xa6?\x04\x83\xb5Q\x8eJ\xca'
p1616
ssS'django_contrib_sites_admin'
p1617
(dp1618
g6
(dp1619
g8
S'django_contrib_sites_admin.html'
p1620
sg10
S'django.contrib.sites.admin'
p1621
sg12
g13
(g14
g15
NtRp1622
(dp1623
g18
I1
sg19
I0
sg20
I6
sg21
I0
sg22
I0
sg23
I0
sg24
I0
sbssg25
S'\x88\xea\x7fX\n\x9c2tI\xac\xb4\xb2\xbd\x0e+\x10'
p1624
ssS'_Users_rick_envs_django-tags-input_lib_python2_7_site-packages_nose_result'
p1625
(dp1626
g29
(dp1627
g31
S'_Users_rick_envs_django-tags-input_lib_python2_7_site-packages_nose_result.html'
p1628
sg33
S'/Users/rick/envs/django-tags-input/lib/python2.7/site-packages/nose/result'
p1629
sg35
g13
(g14
g15
NtRp1630
(dp1631
g18
I1
sg19
I0
sg20
I131
sg21
I0
sg22
I0
sg23
I119
sg24
I0
sbssg38
S'\x16\xe7Z\xa91\xae2\x97\x9e:T\x19QI\xa2\xd2'
p1632
ssS'_Users_rick_envs_django-tags-input_lib_python2_7_site-packages_django_db_models_base'
p1633
(dp1634
g29
(dp1635
g31
S'_Users_rick_envs_django-tags-input_lib_python2_7_site-packages_django_db_models_base.html'
p1636
sg33
S'/Users/rick/envs/django-tags-input/lib/python2.7/site-packages/django/db/models/base'
p1637
sg35
g13
(g14
g15
NtRp1638
(dp1639
g18
I1
sg19
I0
sg20
I544
sg21
I0
sg22
I0
sg23
I304
sg24
I0
sbssg38
S'\xaa\xb3\x8e\xa3\xc8\xb9\x07F?\xac\xb3/{9+2'
p1640
ssS'_Users_rick_envs_django-tags-input_lib_python2_7_site-packages_django_utils_timezone'
p1641
(dp1642
g29
(dp1643
g31
S'_Users_rick_envs_django-tags-input_lib_python2_7_site-packages_django_utils_timezone.html'
p1644
sg33
S'/Users/rick/envs/django-tags-input/lib/python2.7/site-packages/django/utils/timezone'
p1645
sg35
g13
(g14
g15
NtRp1646
(dp1647
g18
I1
sg19
I0
sg20
I114
sg21
I0
sg22
I0
sg23
I81
sg24
I0
sbssg38
S'Y\x9a\x9f\x95\xe0s\xb7t\xce\xd8j\x10\xd8\x1c\x01"'
p1648
ssS'_Users_rick_envs_django-tags-input_lib_python2_7_site-packages_django_utils__os'
p1649
(dp1650
g29
(dp1651
g31
S'_Users_rick_envs_django-tags-input_lib_python2_7_site-packages_django_utils__os.html'
p1652
sg33
S'/Users/rick/envs/django-tags-input/lib/python2.7/site-packages/django/utils/_os'
p1653
sg35
g13
(g14
g15
NtRp1654
(dp1655
g18
I1
sg19
I0
sg20
I43
sg21
I0
sg22
I0
sg23
I32
sg24
I0
sbssg38
S"\x13\xee'\xbf\x81\xb4\xf3\xdf\xf04$\x03\x7f\xdc\x00\xf0"
p1656
ssS'_Users_rick_envs_django-tags-input_lib_python2_7_site-packages_django_utils_importlib'
p1657
(dp1658
g29
(dp1659
g31
S'_Users_rick_envs_django-tags-input_lib_python2_7_site-packages_django_utils_importlib.html'
p1660
sg33
S'/Users/rick/envs/django-tags-input/lib/python2.7/site-packages/django/utils/importlib'
p1661
sg35
g13
(g14
g15
NtRp1662
(dp1663
g18
I1
sg19
I0
sg20
I23
sg21
I0
sg22
I0
sg23
I9
sg24
I0
sbssg38
S'C\xbfm\xf4\x99\x19)\x8eD\xaeMox\x8d\x9b\xc4'
p1664
ssS'_Users_rick_envs_django-tags-input_lib_python2_7_site-packages_django_core_management___init__'
p1665
(dp1666
g29
(dp1667
g31
S'_Users_rick_envs_django-tags-input_lib_python2_7_site-packages_django_core_management___init__.html'
p1668
sg33
S'/Users/rick/envs/django-tags-input/lib/python2.7/site-packages/django/core/management/__init__'
p1669
sg35
g13
(g14
g15
NtRp1670
(dp1671
g18
I1
sg19
I0
sg20
I210
sg21
I0
sg22
I0
sg23
I195
sg24
I0
sbssg38
S'\xcb\xf3loj\xe7\xd6<\xb1H\xe2\x13x\x96\xf2\x85'
p1672
ssS'django_contrib_messages_storage_base'
p1673
(dp1674
g6
(dp1675
g8
S'django_contrib_messages_storage_base.html'
p1676
sg10
S'django.contrib.messages.storage.base'
p1677
sg12
g13
(g14
g15
NtRp1678
(dp1679
g18
I1
sg19
I0
sg20
I83
sg21
I0
sg22
I0
sg23
I13
sg24
I0
sbssg25
S'n\xf9\xed_\x04\x93\x1cH\x1aO\t\x7f\xcas\xba\xcf'
p1680
ssS'_Users_rick_envs_django-tags-input_lib_python2_7_site-packages_django_test_client'
p1681
(dp1682
g29
(dp1683
g31
S'_Users_rick_envs_django-tags-input_lib_python2_7_site-packages_django_test_client.html'
p1684
sg33
S'/Users/rick/envs/django-tags-input/lib/python2.7/site-packages/django/test/client'
p1685
sg35
g13
(g14
g15
NtRp1686
(dp1687
g18
I1
sg19
I0
sg20
I276
sg21
I0
sg22
I0
sg23
I162
sg24
I0
sbssg38
S'_\xbe\xfc]\xbf\x9d\xf09\xa0ba\xad\x06\x972\xda'
p1688
ssS'email_feedparser'
p1689
(dp1690
g6
(dp1691
g8
S'email_feedparser.html'
p1692
sg10
S'email.feedparser'
p1693
sg12
g13
(g14
g15
NtRp1694
(dp1695
g18
I1
sg19
I0
sg20
I306
sg21
I0
sg22
I0
sg23
I306
sg24
I0
sbssg25
S'7 /$\xcc\xcb\x11\xd8\xeb\xd3\xa7\xff^iW]'
p1696
ssS'_Users_rick_envs_django-tags-input_lib_python2_7_site-packages_django_middleware_common'
p1697
(dp1698
g29
(dp1699
g31
S'_Users_rick_envs_django-tags-input_lib_python2_7_site-packages_django_middleware_common.html'
p1700
sg33
S'/Users/rick/envs/django-tags-input/lib/python2.7/site-packages/django/middleware/common'
p1701
sg35
g13
(g14
g15
NtRp1702
(dp1703
g18
I1
sg19
I0
sg20
I82
sg21
I0
sg22
I0
sg23
I56
sg24
I0
sbssg38
S'\xfe%\xa8\xa8\xd4\x8a=\xd4\xc0\xf3\xc1\xe2\t\xe4\xec\x1c'
p1704
ssS'_Users_rick_envs_django-tags-input_lib_python2_7_site-packages_nose_util'
p1705
(dp1706
g29
(dp1707
g31
S'_Users_rick_envs_django-tags-input_lib_python2_7_site-packages_nose_util.html'
p1708
sg33
S'/Users/rick/envs/django-tags-input/lib/python2.7/site-packages/nose/util'
p1709
sg35
g13
(g14
g15
NtRp1710
(dp1711
g18
I1
sg19
I0
sg20
I341
sg21
I0
sg22
I0
sg23
I255
sg24
I0
sbssg38
S'\x1c \xf0\xa7\xf6\xeb\x7fss\x18\x14 4.\xfa\x1d'
p1712
ssS'_Users_rick_envs_django-tags-input_lib_python2_7_site-packages_nose_suite'
p1713
(dp1714
g29
(dp1715
g31
S'_Users_rick_envs_django-tags-input_lib_python2_7_site-packages_nose_suite.html'
p1716
sg33
S'/Users/rick/envs/django-tags-input/lib/python2.7/site-packages/nose/suite'
p1717
sg35
g13
(g14
g15
NtRp1718
(dp1719
g18
I1
sg19
I0
sg20
I394
sg21
I0
sg22
I0
sg23
I203
sg24
I0
sbssg38
S'\x10\xf4\xb4\xd6WV\xbd\\u\xb5L\x8a\x90\xbe\xd3\xb6'
p1720
ssS'_Users_rick_envs_django-tags-input_lib_python2_7_site-packages_nose_config'
p1721
(dp1722
g29
(dp1723
g31
S'_Users_rick_envs_django-tags-input_lib_python2_7_site-packages_nose_config.html'
p1724
sg33
S'/Users/rick/envs/django-tags-input/lib/python2.7/site-packages/nose/config'
p1725
sg35
g13
(g14
g15
NtRp1726
(dp1727
g18
I1
sg19
I0
sg20
I350
sg21
I0
sg22
I0
sg23
I314
sg24
I0
sbssg38
S'\xa7\x14\xe0\xa6T\xc7\x1a\nTB\\o\xb5\xc6\xf6\xfe'
p1728
ssS'_Users_rick_envs_django-tags-input_lib_python2_7_site-packages_django_contrib_admin_templatetags_admin_urls'
p1729
(dp1730
g29
(dp1731
g31
S'_Users_rick_envs_django-tags-input_lib_python2_7_site-packages_django_contrib_admin_templatetags_admin_urls.html'
p1732
sg33
S'/Users/rick/envs/django-tags-input/lib/python2.7/site-packages/django/contrib/admin/templatetags/admin_urls'
p1733
sg35
g13
(g14
g15
NtRp1734
(dp1735
g18
I1
sg19
I0
sg20
I8
sg21
I0
sg22
I0
sg23
I0
sg24
I0
sbssg38
S'\xa0>\xa5\x7f\xda\x194\xe49\xea[_\xc2\xff\x99\x1b'
p1736
ssS'_Users_rick_envs_django-tags-input_lib_python2_7_site-packages_django_core_context_processors'
p1737
(dp1738
g29
(dp1739
g31
S'_Users_rick_envs_django-tags-input_lib_python2_7_site-packages_django_core_context_processors.html'
p1740
sg33
S'/Users/rick/envs/django-tags-input/lib/python2.7/site-packages/django/core/context_processors'
p1741
sg35
g13
(g14
g15
NtRp1742
(dp1743
g18
I1
sg19
I0
sg20
I37
sg21
I0
sg22
I0
sg23
I5
sg24
I0
sbssg38
S'K\x0e\xa0\x81\xe5\xf6\xcac\xfeA}a|]\x19\x08'
p1744
ssS'tags_input_fields'
p1745
(dp1746
g6
(dp1747
g8
S'tags_input_fields.html'
p1748
sg10
S'tags_input.fields'
p1749
sg12
g13
(g14
g15
NtRp1750
(dp1751
g18
I1
sg19
I0
sg20
I43
sg21
I0
sg22
I0
sg23
I3
sg24
I0
sbssg25
S'\xa3"\'\xb3\x18!p\xf9Ew\x87z\x18\r\xc1\x01'
p1752
ssS'_Users_rick_envs_django-tags-input_lib_python2_7_site-packages_django_utils_translation___init__'
p1753
(dp1754
g29
(dp1755
g31
S'_Users_rick_envs_django-tags-input_lib_python2_7_site-packages_django_utils_translation___init__.html'
p1756
sg33
S'/Users/rick/envs/django-tags-input/lib/python2.7/site-packages/django/utils/translation/__init__'
p1757
sg35
g13
(g14
g15
NtRp1758
(dp1759
g18
I1
sg19
I0
sg20
I78
sg21
I0
sg22
I0
sg23
I66
sg24
I0
sbssg38
S'\x8e\xee7\xe0WE+\xfe\xbd\xe8\xe4EH]\xcf\xdc'
p1760
ssS'_Users_rick_envs_django-tags-input_lib_python2_7_site-packages_django_utils_decorators'
p1761
(dp1762
g29
(dp1763
g31
S'_Users_rick_envs_django-tags-input_lib_python2_7_site-packages_django_utils_decorators.html'
p1764
sg33
S'/Users/rick/envs/django-tags-input/lib/python2.7/site-packages/django/utils/decorators'
p1765
sg35
g13
(g14
g15
NtRp1766
(dp1767
g18
I1
sg19
I0
sg20
I59
sg21
I0
sg22
I0
sg23
I30
sg24
I0
sbssg38
S'K\x94\xf6\x80A\xb3\x9c\xd8\xb5J+"\xc6\x83\xea/'
p1768
ssS'django_contrib_contenttypes_management'
p1769
(dp1770
g6
(dp1771
g8
S'django_contrib_contenttypes_management.html'
p1772
sg10
S'django.contrib.contenttypes.management'
p1773
sg12
g13
(g14
g15
NtRp1774
(dp1775
g18
I1
sg19
I0
sg20
I40
sg21
I0
sg22
I0
sg23
I17
sg24
I0
sbssg25
S'\xe071\x8b\x81A=\xee\xc7+(G\xaa\x12\xb3('
p1776
ssS'_Users_rick_envs_django-tags-input_lib_python2_7_site-packages_django_contrib_messages_models'
p1777
(dp1778
g29
(dp1779
g31
S'_Users_rick_envs_django-tags-input_lib_python2_7_site-packages_django_contrib_messages_models.html'
p1780
sg33
S'/Users/rick/envs/django-tags-input/lib/python2.7/site-packages/django/contrib/messages/models'
p1781
sg35
g13
(g14
g15
NtRp1782
(dp1783
g18
I1
sg19
I0
sg20
I0
sg21
I0
sg22
I0
sg23
I0
sg24
I0
sbssg38
S'}\xf8)\x98N\x1e\xef\xd8Ky\x9f\x03d\x14L\xac'
p1784
ssS'db_router'
p1785
(dp1786
g29
(dp1787
g31
S'db_router.html'
p1788
sg33
g1785
sg35
g13
(g14
g15
NtRp1789
(dp1790
g18
I1
sg19
I0
sg20
I10
sg21
I0
sg22
I0
sg23
I8
sg24
I0
sbssg38
S"\x08./\x1e\xbe\xb7\xc3\x93\xb2\x15o\xd5\xbc'\xba\xe6"
p1791
ssS'django_contrib_admin_views_decorators'
p1792
(dp1793
g6
(dp1794
g8
S'django_contrib_admin_views_decorators.html'
p1795
sg10
S'django.contrib.admin.views.decorators'
p1796
sg12
g13
(g14
g15
NtRp1797
(dp1798
g18
I1
sg19
I0
sg20
I13
sg21
I0
sg22
I0
sg23
I5
sg24
I0
sbssg25
S'Q\x9d\x8f\x94\xe6:N\xd9\r0\x9b\x9242\x13\xbe'
p1799
ssS'_Users_rick_envs_django-tags-input_lib_python2_7_site-packages_django_core_management_commands_syncdb'
p1800
(dp1801
g29
(dp1802
g31
S'_Users_rick_envs_django-tags-input_lib_python2_7_site-packages_django_core_management_commands_syncdb.html'
p1803
sg33
S'/Users/rick/envs/django-tags-input/lib/python2.7/site-packages/django/core/management/commands/syncdb'
p1804
sg35
g13
(g14
g15
NtRp1805
(dp1806
g18
I1
sg19
I0
sg20
I99
sg21
I0
sg22
I0
sg23
I24
sg24
I0
sbssg38
S'\xad\xfc[\x81\x91G(j\xc6GKl\xb5D\xec4'
p1807
ssS'email_parser'
p1808
(dp1809
g6
(dp1810
g8
S'email_parser.html'
p1811
sg10
S'email.parser'
p1812
sg12
g13
(g14
g15
NtRp1813
(dp1814
g18
I1
sg19
I0
sg20
I44
sg21
I0
sg22
I0
sg23
I44
sg24
I0
sbssg25
S'\xeb\x9b\xb0\xbd"\xf9\xae+\xfc\x9dQ\xdf\x97\xa4*\x92'
p1815
ssS'_Users_rick_envs_django-tags-input_lib_python2_7_site-packages_django_contrib_sessions_backends_db'
p1816
(dp1817
g29
(dp1818
g31
S'_Users_rick_envs_django-tags-input_lib_python2_7_site-packages_django_contrib_sessions_backends_db.html'
p1819
sg33
S'/Users/rick/envs/django-tags-input/lib/python2.7/site-packages/django/contrib/sessions/backends/db'
p1820
sg35
g13
(g14
g15
NtRp1821
(dp1822
g18
I1
sg19
I0
sg20
I50
sg21
I0
sg22
I0
sg23
I15
sg24
I0
sbssg38
S'\xfa\x17\xdeu/\x053\xbe\xbd\x13\x1c\xee\x1f\x1dW\n'
p1823
ssS'_Users_rick_envs_django-tags-input_lib_python2_7_site-packages_django_template_base'
p1824
(dp1825
g29
(dp1826
g31
S'_Users_rick_envs_django-tags-input_lib_python2_7_site-packages_django_template_base.html'
p1827
sg33
S'/Users/rick/envs/django-tags-input/lib/python2.7/site-packages/django/template/base'
p1828
sg35
g13
(g14
g15
NtRp1829
(dp1830
g18
I1
sg19
I0
sg20
I778
sg21
I0
sg22
I0
sg23
I377
sg24
I0
sbssg38
S'l\xbb\x99\xe8{m3\xb5x\\\xfb\x90`\xe0\xba4'
p1831
ssS'_Users_rick_envs_django-tags-input_lib_python2_7_site-packages_django_test_utils'
p1832
(dp1833
g29
(dp1834
g31
S'_Users_rick_envs_django-tags-input_lib_python2_7_site-packages_django_test_utils.html'
p1835
sg33
S'/Users/rick/envs/django-tags-input/lib/python2.7/site-packages/django/test/utils'
p1836
sg35
g13
(g14
g15
NtRp1837
(dp1838
g18
I1
sg19
I0
sg20
I188
sg21
I0
sg22
I0
sg23
I154
sg24
I0
sbssg38
S'\xde\xf6\xd3D\x9f6"}\x9c\xf5n\xc4\x0f\xc3lD'
p1839
ssS'django_contrib_admin_templatetags_admin_modify'
p1840
(dp1841
g6
(dp1842
g8
S'django_contrib_admin_templatetags_admin_modify.html'
p1843
sg10
S'django.contrib.admin.templatetags.admin_modify'
p1844
sg12
g13
(g14
g15
NtRp1845
(dp1846
g18
I1
sg19
I0
sg20
I31
sg21
I0
sg22
I0
sg23
I12
sg24
I0
sbssg25
S'\x18v8k>\x82\x07\x90K\xb4\x04\x9e\xd77\x95`'
p1847
ssS'example_urls'
p1848
(dp1849
g6
(dp1850
g8
S'example_urls.html'
p1851
sg10
S'example.urls'
p1852
sg12
g13
(g14
g15
NtRp1853
(dp1854
g18
I1
sg19
I0
sg20
I4
sg21
I0
sg22
I0
sg23
I0
sg24
I0
sbssg25
S"\t\xb0=Qw\xd5')cJ\x84y\x1cA\x13o"
p1855
ssS'_Users_rick_envs_django-tags-input_lib_python2_7_site-packages_django_contrib_staticfiles_storage'
p1856
(dp1857
g29
(dp1858
g31
S'_Users_rick_envs_django-tags-input_lib_python2_7_site-packages_django_contrib_staticfiles_storage.html'
p1859
sg33
S'/Users/rick/envs/django-tags-input/lib/python2.7/site-packages/django/contrib/staticfiles/storage'
p1860
sg35
g13
(g14
g15
NtRp1861
(dp1862
g18
I1
sg19
I0
sg20
I181
sg21
I0
sg22
I0
sg23
I174
sg24
I0
sbssg38
S'\nSl\xfb\xc9\x8eW\x12\xee\xde\x00\xe0n>\xf4\x1d'
p1863
ssS'_Users_rick_envs_django-tags-input_lib_python2_7_site-packages_nose_selector'
p1864
(dp1865
g29
(dp1866
g31
S'_Users_rick_envs_django-tags-input_lib_python2_7_site-packages_nose_selector.html'
p1867
sg33
S'/Users/rick/envs/django-tags-input/lib/python2.7/site-packages/nose/selector'
p1868
sg35
g13
(g14
g15
NtRp1869
(dp1870
g18
I1
sg19
I0
sg20
I134
sg21
I0
sg22
I0
sg23
I64
sg24
I0
sbssg38
S'j9Q\x0f\x88\xe3\xc0\xd4\xbez\x03\xcdQS\x82 '
p1871
ssS'_Users_rick_envs_django-tags-input_lib_python2_7_site-packages_django_utils_module_loading'
p1872
(dp1873
g29
(dp1874
g31
S'_Users_rick_envs_django-tags-input_lib_python2_7_site-packages_django_utils_module_loading.html'
p1875
sg33
S'/Users/rick/envs/django-tags-input/lib/python2.7/site-packages/django/utils/module_loading'
p1876
sg35
g13
(g14
g15
NtRp1877
(dp1878
g18
I1
sg19
I0
sg20
I48
sg21
I0
sg22
I0
sg23
I31
sg24
I0
sbssg38
S'w\xa1\x1a\xf9;K\xad\ny\x1b\x9b.];\x91R'
p1879
ssS'_Users_rick_envs_django-tags-input_lib_python2_7_site-packages_django_template_loader'
p1880
(dp1881
g29
(dp1882
g31
S'_Users_rick_envs_django-tags-input_lib_python2_7_site-packages_django_template_loader.html'
p1883
sg33
S'/Users/rick/envs/django-tags-input/lib/python2.7/site-packages/django/template/loader'
p1884
sg35
g13
(g14
g15
NtRp1885
(dp1886
g18
I1
sg19
I0
sg20
I105
sg21
I0
sg22
I0
sg23
I50
sg24
I0
sbssg38
S'\xa6vI\x08\xd2\xfa\xeb\xa3v\x83C\xfd\x99W\xfb\xd4'
p1887
ssS'_Users_rick_envs_django-tags-input_lib_python2_7_site-packages_django_nose_utils'
p1888
(dp1889
g29
(dp1890
g31
S'_Users_rick_envs_django-tags-input_lib_python2_7_site-packages_django_nose_utils.html'
p1891
sg33
S'/Users/rick/envs/django-tags-input/lib/python2.7/site-packages/django_nose/utils'
p1892
sg35
g13
(g14
g15
NtRp1893
(dp1894
g18
I1
sg19
I0
sg20
I12
sg21
I0
sg22
I0
sg23
I5
sg24
I0
sbssg38
S'^\xb3J/;u\x08\xa4\xf3/\x9d\xf6\xd8\xb0\x06b'
p1895
ssS'_Users_rick_envs_django-tags-input_lib_python2_7_site-packages_django_contrib_messages_storage_fallback'
p1896
(dp1897
g29
(dp1898
g31
S'_Users_rick_envs_django-tags-input_lib_python2_7_site-packages_django_contrib_messages_storage_fallback.html'
p1899
sg33
S'/Users/rick/envs/django-tags-input/lib/python2.7/site-packages/django/contrib/messages/storage/fallback'
p1900
sg35
g13
(g14
g15
NtRp1901
(dp1902
g18
I1
sg19
I0
sg20
I29
sg21
I0
sg22
I0
sg23
I0
sg24
I0
sbssg38
S'\xd3\x1e\xb8\x90\x93\x9f\xf9\x19\xa0\x8d yx\xc3\xd1s'
p1903
ssS'_Users_rick_envs_django-tags-input_lib_python2_7_site-packages_django_forms_forms'
p1904
(dp1905
g29
(dp1906
g31
S'_Users_rick_envs_django-tags-input_lib_python2_7_site-packages_django_forms_forms.html'
p1907
sg33
S'/Users/rick/envs/django-tags-input/lib/python2.7/site-packages/django/forms/forms'
p1908
sg35
g13
(g14
g15
NtRp1909
(dp1910
g18
I1
sg19
I0
sg20
I281
sg21
I0
sg22
I0
sg23
I181
sg24
I0
sbssg38
S'\xd0\x12\x85)\xdds\xf4\x06J\xf4`\x96\xef(ZF'
p1911
ssS'_Users_rick_envs_django-tags-input_lib_python2_7_site-packages_django_db_backends___init__'
p1912
(dp1913
g29
(dp1914
g31
S'_Users_rick_envs_django-tags-input_lib_python2_7_site-packages_django_db_backends___init__.html'
p1915
sg33
S'/Users/rick/envs/django-tags-input/lib/python2.7/site-packages/django/db/backends/__init__'
p1916
sg35
g13
(g14
g15
NtRp1917
(dp1918
g18
I1
sg19
I0
sg20
I451
sg21
I0
sg22
I0
sg23
I300
sg24
I0
sbssg38
S'\xb3\\&K\x8b\x0b\x8f\xbc\xa3\xe4\xe5\xee\x83\xde`<'
p1919
ssS'_Users_rick_envs_django-tags-input_lib_python2_7_site-packages_django_http_response'
p1920
(dp1921
g29
(dp1922
g31
S'_Users_rick_envs_django-tags-input_lib_python2_7_site-packages_django_http_response.html'
p1923
sg33
S'/Users/rick/envs/django-tags-input/lib/python2.7/site-packages/django/http/response'
p1924
sg35
g13
(g14
g15
NtRp1925
(dp1926
g18
I1
sg19
I0
sg20
I236
sg21
I0
sg22
I0
sg23
I183
sg24
I0
sbssg38
S'\xcf~\x06\x12\xf62\xa0\xafy\x8cT\xf9\xe1\xd3\xdf\xed'
p1927
ssS'_Users_rick_envs_django-tags-input_lib_python2_7_site-packages_django_core_management_commands_flush'
p1928
(dp1929
g29
(dp1930
g31
S'_Users_rick_envs_django-tags-input_lib_python2_7_site-packages_django_core_management_commands_flush.html'
p1931
sg33
S'/Users/rick/envs/django-tags-input/lib/python2.7/site-packages/django/core/management/commands/flush'
p1932
sg35
g13
(g14
g15
NtRp1933
(dp1934
g18
I1
sg19
I0
sg20
I46
sg21
I0
sg22
I0
sg23
I5
sg24
I0
sbssg38
S'#^\x89\\H\xd4\x86\x86\xb6\x7f}\xe7\xee\x8akq'
p1935
ssS'_Users_rick_envs_django-tags-input_lib_python2_7_site-packages_django_core_management_commands_loaddata'
p1936
(dp1937
g29
(dp1938
g31
S'_Users_rick_envs_django-tags-input_lib_python2_7_site-packages_django_core_management_commands_loaddata.html'
p1939
sg33
S'/Users/rick/envs/django-tags-input/lib/python2.7/site-packages/django/core/management/commands/loaddata'
p1940
sg35
g13
(g14
g15
NtRp1941
(dp1942
g18
I1
sg19
I0
sg20
I157
sg21
I0
sg22
I0
sg23
I92
sg24
I0
sbssg38
S'i\x83\x0cf+~X"\x9ah%\xc8\x96d\xf7\\'
p1943
ssS'django_core_serializers_xml_serializer'
p1944
(dp1945
g6
(dp1946
g8
S'django_core_serializers_xml_serializer.html'
p1947
sg10
S'django.core.serializers.xml_serializer'
p1948
sg12
g13
(g14
g15
NtRp1949
(dp1950
g18
I1
sg19
I0
sg20
I209
sg21
I0
sg22
I0
sg23
I163
sg24
I0
sbssg25
S'D\x84+U\xaa{aF\x82\x85j,\x93x\xce\xa8'
p1951
ssS'_Users_rick_envs_django-tags-input_lib_python2_7_site-packages_django_db_models_manager'
p1952
(dp1953
g29
(dp1954
g31
S'_Users_rick_envs_django-tags-input_lib_python2_7_site-packages_django_db_models_manager.html'
p1955
sg33
S'/Users/rick/envs/django-tags-input/lib/python2.7/site-packages/django/db/models/manager'
p1956
sg35
g13
(g14
g15
NtRp1957
(dp1958
g18
I1
sg19
I0
sg20
I157
sg21
I0
sg22
I0
sg23
I110
sg24
I0
sbssg38
S'\x1e\x18\xeb34\xfcuI\xa1S\xb2\x16\xfdU\x03\xc6'
p1959
ssS'_Users_rick_envs_django-tags-input_lib_python2_7_site-packages_nose_plugins_errorclass'
p1960
(dp1961
g29
(dp1962
g31
S'_Users_rick_envs_django-tags-input_lib_python2_7_site-packages_nose_plugins_errorclass.html'
p1963
sg33
S'/Users/rick/envs/django-tags-input/lib/python2.7/site-packages/nose/plugins/errorclass'
p1964
sg35
g13
(g14
g15
NtRp1965
(dp1966
g18
I1
sg19
I0
sg20
I65
sg21
I0
sg22
I0
sg23
I59
sg24
I0
sbssg38
S'9\xddF\xc5\xec\xfa\xdd\xec\xc8\x9d\xcd\xe8\xc1\x15>\x91'
p1967
ssS'_Users_rick_envs_django-tags-input_lib_python2_7_site-packages_django_contrib_sessions_models'
p1968
(dp1969
g29
(dp1970
g31
S'_Users_rick_envs_django-tags-input_lib_python2_7_site-packages_django_contrib_sessions_models.html'
p1971
sg33
S'/Users/rick/envs/django-tags-input/lib/python2.7/site-packages/django/contrib/sessions/models'
p1972
sg35
g13
(g14
g15
NtRp1973
(dp1974
g18
I1
sg19
I0
sg20
I23
sg21
I0
sg22
I0
sg23
I7
sg24
I0
sbssg38
S'< \xef\x96\xa0\x8c\xd8\xe9~\n\xbb7\xe7U\xf3['
p1975
ssS'_Users_rick_envs_django-tags-input_lib_python2_7_site-packages_django_contrib_sites_models'
p1976
(dp1977
g29
(dp1978
g31
S'_Users_rick_envs_django-tags-input_lib_python2_7_site-packages_django_contrib_sites_models.html'
p1979
sg33
S'/Users/rick/envs/django-tags-input/lib/python2.7/site-packages/django/contrib/sites/models'
p1980
sg35
g13
(g14
g15
NtRp1981
(dp1982
g18
I1
sg19
I0
sg20
I58
sg21
I0
sg22
I0
sg23
I55
sg24
I0
sbssg38
S'h;\x0e\xb5\x9f\x1b\x8b\x13\x12\xa5\x11<\x07\x95\x16%'
p1983
ssS'django_core_cache_backends_db'
p1984
(dp1985
g6
(dp1986
g8
S'django_core_cache_backends_db.html'
p1987
sg10
S'django.core.cache.backends.db'
p1988
sg12
g13
(g14
g15
NtRp1989
(dp1990
g18
I1
sg19
I0
sg20
I128
sg21
I0
sg22
I0
sg23
I103
sg24
I0
sbssg25
S'\x18Sqc@\x84\x05\x07\xfd"h\x9e\xf4\xb3\xbfp'
p1991
ssS'_Users_rick_envs_django-tags-input_lib_python2_7_site-packages_django_contrib_messages_api'
p1992
(dp1993
g29
(dp1994
g31
S'_Users_rick_envs_django-tags-input_lib_python2_7_site-packages_django_contrib_messages_api.html'
p1995
sg33
S'/Users/rick/envs/django-tags-input/lib/python2.7/site-packages/django/contrib/messages/api'
p1996
sg35
g13
(g14
g15
NtRp1997
(dp1998
g18
I1
sg19
I0
sg20
I34
sg21
I0
sg22
I0
sg23
I30
sg24
I0
sbssg38
S"W\xaf\x02\xe5\xd3'\xaa\nlQE\xc1b\xaa\xe4\x83"
p1999
ssS'_Users_rick_envs_django-tags-input_lib_python2_7_site-packages_django_utils_functional'
p2000
(dp2001
g29
(dp2002
g31
S'_Users_rick_envs_django-tags-input_lib_python2_7_site-packages_django_utils_functional.html'
p2003
sg33
S'/Users/rick/envs/django-tags-input/lib/python2.7/site-packages/django/utils/functional'
p2004
sg35
g13
(g14
g15
NtRp2005
(dp2006
g18
I1
sg19
I0
sg20
I207
sg21
I0
sg22
I0
sg23
I123
sg24
I0
sbssg38
S'\x0e\xf5u\x13t\x01\x8bL\xcfj\xaes\xd7+\xcb\x12'
p2007
ssS'django_contrib_auth_admin'
p2008
(dp2009
g6
(dp2010
g8
S'django_contrib_auth_admin.html'
p2011
sg10
S'django.contrib.auth.admin'
p2012
sg12
g13
(g14
g15
NtRp2013
(dp2014
g18
I1
sg19
I0
sg20
I92
sg21
I0
sg22
I0
sg23
I43
sg24
I0
sbssg25
S'\xe2\r\x92ff\x91\xd3\xe6qyV6\xbf\x92Z\x92'
p2015
ssS'django_contrib_auth_backends'
p2016
(dp2017
g6
(dp2018
g8
S'django_contrib_auth_backends.html'
p2019
sg10
S'django.contrib.auth.backends'
p2020
sg12
g13
(g14
g15
NtRp2021
(dp2022
g18
I1
sg19
I0
sg20
I71
sg21
I0
sg22
I0
sg23
I47
sg24
I0
sbssg25
S'/\x0b\xec\xc0\x03>K\x84?\x14aw\\\xc3\x9f\xf5'
p2023
ssS'_Users_rick_envs_django-tags-input_lib_python2_7_site-packages_django_dispatch_dispatcher'
p2024
(dp2025
g29
(dp2026
g31
S'_Users_rick_envs_django-tags-input_lib_python2_7_site-packages_django_dispatch_dispatcher.html'
p2027
sg33
S'/Users/rick/envs/django-tags-input/lib/python2.7/site-packages/django/dispatch/dispatcher'
p2028
sg35
g13
(g14
g15
NtRp2029
(dp2030
g18
I1
sg19
I0
sg20
I101
sg21
I0
sg22
I0
sg23
I62
sg24
I0
sbssg38
S'\xd2\x02\x91\x98\xc4\xd4\xc1tb\x82\xa8w\x04))\x01'
p2031
ssS'_Users_rick_envs_django-tags-input_lib_python2_7_site-packages_django_middleware_csrf'
p2032
(dp2033
g29
(dp2034
g31
S'_Users_rick_envs_django-tags-input_lib_python2_7_site-packages_django_middleware_csrf.html'
p2035
sg33
S'/Users/rick/envs/django-tags-input/lib/python2.7/site-packages/django/middleware/csrf'
p2036
sg35
g13
(g14
g15
NtRp2037
(dp2038
g18
I1
sg19
I0
sg20
I86
sg21
I0
sg22
I0
sg23
I54
sg24
I0
sbssg38
S'3\x02A\xd8H9,\xa2nWS\xbd\xc1\x9d+\xbf'
p2039
ssS'_Users_rick_envs_django-tags-input_lib_python2_7_site-packages_django_core_handlers_base'
p2040
(dp2041
g29
(dp2042
g31
S'_Users_rick_envs_django-tags-input_lib_python2_7_site-packages_django_core_handlers_base.html'
p2043
sg33
S'/Users/rick/envs/django-tags-input/lib/python2.7/site-packages/django/core/handlers/base'
p2044
sg35
g13
(g14
g15
NtRp2045
(dp2046
g18
I1
sg19
I0
sg20
I155
sg21
I0
sg22
I0
sg23
I89
sg24
I0
sbssg38
S"\xb1;'\x13\x13&~\xfe\x87\xf9\x93\xb6\x0f\x01+\xe9"
p2047
ssS'_Users_rick_workspace_django-tags-input_tags_input_exceptions'
p2048
(dp2049
g29
(dp2050
g31
S'_Users_rick_workspace_django-tags-input_tags_input_exceptions.html'
p2051
sg33
S'/Users/rick/workspace/django-tags-input/tags_input/exceptions'
p2052
sg35
g13
(g14
g15
NtRp2053
(dp2054
g18
I1
sg19
I0
sg20
I6
sg21
I0
sg22
I0
sg23
I0
sg24
I0
sbssg38
S'\x0b\xf1\xb5\x0c5\xa9\x88\x80e$\xe4\x9e\x18\x14t\xfa'
p2055
ssS'django_contrib_staticfiles_management'
p2056
(dp2057
g6
(dp2058
g8
S'django_contrib_staticfiles_management.html'
p2059
sg10
S'django.contrib.staticfiles.management'
p2060
sg12
g13
(g14
g15
NtRp2061
(dp2062
g18
I1
sg19
I0
sg20
I0
sg21
I0
sg22
I0
sg23
I0
sg24
I0
sbssg25
S'\xb0\xc8pN\xaf>\xa0\xbaz\x144\xe0A9\xb8?'
p2063
ssS'_Users_rick_envs_django-tags-input_lib_python2_7_site-packages_django_db_models_options'
p2064
(dp2065
g29
(dp2066
g31
S'_Users_rick_envs_django-tags-input_lib_python2_7_site-packages_django_db_models_options.html'
p2067
sg33
S'/Users/rick/envs/django-tags-input/lib/python2.7/site-packages/django/db/models/options'
p2068
sg35
g13
(g14
g15
NtRp2069
(dp2070
g18
I1
sg19
I0
sg20
I338
sg21
I0
sg22
I0
sg23
I132
sg24
I0
sbssg38
S'\x7fm|=\x83\xf7\x86V\xecdo\xc7\x07O\x1aH'
p2071
ssS'_Users_rick_envs_django-tags-input_lib_python2_7_site-packages_django_contrib_sessions_management___init__'
p2072
(dp2073
g29
(dp2074
g31
S'_Users_rick_envs_django-tags-input_lib_python2_7_site-packages_django_contrib_sessions_management___init__.html'
p2075
sg33
S'/Users/rick/envs/django-tags-input/lib/python2.7/site-packages/django/contrib/sessions/management/__init__'
p2076
sg35
g13
(g14
g15
NtRp2077
(dp2078
g18
I1
sg19
I0
sg20
I0
sg21
I0
sg22
I0
sg23
I0
sg24
I0
sbssg38
S'\xb0\xc8pN\xaf>\xa0\xbaz\x144\xe0A9\xb8?'
p2079
ssS'_Users_rick_envs_django-tags-input_lib_python2_7_site-packages_django_contrib_staticfiles_templatetags_staticfiles'
p2080
(dp2081
g29
(dp2082
g31
S'_Users_rick_envs_django-tags-input_lib_python2_7_site-packages_django_contrib_staticfiles_templatetags_staticfiles.html'
p2083
sg33
S'/Users/rick/envs/django-tags-input/lib/python2.7/site-packages/django/contrib/staticfiles/templatetags/staticfiles'
p2084
sg35
g13
(g14
g15
NtRp2085
(dp2086
g18
I1
sg19
I0
sg20
I12
sg21
I0
sg22
I0
sg23
I11
sg24
I0
sbssg38
S'\r8\xb0\x7f\xcfp\xbc\x84\x12u\x81~\xd7\x99=E'
p2087
ssS'_Users_rick_envs_django-tags-input_lib_python2_7_site-packages_django_contrib_auth_middleware'
p2088
(dp2089
g29
(dp2090
g31
S'_Users_rick_envs_django-tags-input_lib_python2_7_site-packages_django_contrib_auth_middleware.html'
p2091
sg33
S'/Users/rick/envs/django-tags-input/lib/python2.7/site-packages/django/contrib/auth/middleware'
p2092
sg35
g13
(g14
g15
NtRp2093
(dp2094
g18
I1
sg19
I0
sg20
I44
sg21
I0
sg22
I0
sg23
I27
sg24
I0
sbssg38
S'\xfb\xec\x83\xc7\r\x84\x1c<z!\x10\xcd\x0b\x11EC'
p2095
ssS'_Users_rick_envs_django-tags-input_lib_python2_7_site-packages_django_contrib_admin_models'
p2096
(dp2097
g29
(dp2098
g31
S'_Users_rick_envs_django-tags-input_lib_python2_7_site-packages_django_contrib_admin_models.html'
p2099
sg33
S'/Users/rick/envs/django-tags-input/lib/python2.7/site-packages/django/contrib/admin/models'
p2100
sg35
g13
(g14
g15
NtRp2101
(dp2102
g18
I1
sg19
I0
sg20
I52
sg21
I0
sg22
I0
sg23
I15
sg24
I0
sbssg38
S'I\xf3\xac{w\xa6IQ,\x87\xc9ez\xbe\xf4\x88'
p2103
ssS'_Users_rick_envs_django-tags-input_lib_python2_7_site-packages_django_utils_encoding'
p2104
(dp2105
g29
(dp2106
g31
S'_Users_rick_envs_django-tags-input_lib_python2_7_site-packages_django_utils_encoding.html'
p2107
sg33
S'/Users/rick/envs/django-tags-input/lib/python2.7/site-packages/django/utils/encoding'
p2108
sg35
g13
(g14
g15
NtRp2109
(dp2110
g18
I1
sg19
I0
sg20
I104
sg21
I0
sg22
I0
sg23
I71
sg24
I0
sbssg38
S'9\xa2\xc3\xc8A\x88\x8dh\x0b\xf5W\n\xcelF\xc9'
p2111
ssS'_Users_rick_envs_django-tags-input_lib_python2_7_site-packages_django_contrib_messages_middleware'
p2112
(dp2113
g29
(dp2114
g31
S'_Users_rick_envs_django-tags-input_lib_python2_7_site-packages_django_contrib_messages_middleware.html'
p2115
sg33
S'/Users/rick/envs/django-tags-input/lib/python2.7/site-packages/django/contrib/messages/middleware'
p2116
sg35
g13
(g14
g15
NtRp2117
(dp2118
g18
I1
sg19
I0
sg20
I11
sg21
I0
sg22
I0
sg23
I1
sg24
I0
sbssg38
S'Ck\x91\x91\x8c\xffq\xa6?\x04\x83\xb5Q\x8eJ\xca'
p2119
ssS'_Users_rick_workspace_django-tags-input_tags_input_widgets'
p2120
(dp2121
g29
(dp2122
g31
S'_Users_rick_workspace_django-tags-input_tags_input_widgets.html'
p2123
sg33
S'/Users/rick/workspace/django-tags-input/tags_input/widgets'
p2124
sg35
g13
(g14
g15
NtRp2125
(dp2126
g18
I1
sg19
I0
sg20
I40
sg21
I0
sg22
I0
sg23
I2
sg24
I0
sbssg38
S'\x13c\xe8\x1cwE\xefu\xe2\x8f>\xedu"`\xd9'
p2127
ssS'django_contrib_auth_context_processors'
p2128
(dp2129
g6
(dp2130
g8
S'django_contrib_auth_context_processors.html'
p2131
sg10
S'django.contrib.auth.context_processors'
p2132
sg12
g13
(g14
g15
NtRp2133
(dp2134
g18
I1
sg19
I0
sg20
I31
sg21
I0
sg22
I0
sg23
I14
sg24
I0
sbssg25
S'\xf6\xa8D\xb1\xa4\xb7\xf5F\n\x86\r\x8c\x1d\xa8\x06\x96'
p2135
ssS'_Users_rick_workspace_django-tags-input_tags_input_utils'
p2136
(dp2137
g29
(dp2138
g31
S'_Users_rick_workspace_django-tags-input_tags_input_utils.html'
p2139
sg33
S'/Users/rick/workspace/django-tags-input/tags_input/utils'
p2140
sg35
g13
(g14
g15
NtRp2141
(dp2142
g18
I1
sg19
I0
sg20
I45
sg21
I0
sg22
I0
sg23
I0
sg24
I0
sbssg38
S'=hn\xe2!\xeaQ\xe2?k\xa0\x92\xcas`\xf0'
p2143
sssS'version'
p2144
S'3.6'
p2145
sS'settings'
p2146
S'\x0f\xd0JHYv\x01n\xf0\xee\xc3\xb3\xad.\xf1\xae'
p2147
sS'format'
p2148
I1
s.